###############################################################################
#                                                                             #
# IAR C/C++ Compiler V8.10.1.10194/W32 for 8051         14/May/2016  22:31:13 #
# Copyright 2004-2011 IAR Systems AB.                                         #
#                                                                             #
#    Core               =  plain                                              #
#    Code model         =  banked                                             #
#    Data model         =  large                                              #
#    Calling convention =  xdata reentrant                                    #
#    Constant location  =  data_rom                                           #
#    Dptr setup         =  1,16                                               #
#    Source file        =  G:\IAR projects\EndDevice_DHT11\Projects\zstack\Sa #
#                          mples\SampleApp\Source\SampleApp.c                 #
#    Command line       =  -f "G:\IAR projects\EndDevice_DHT11\Projects\zstac #
#                          k\Samples\SampleApp\CC2530DB\..\..\..\Tools\CC2530 #
#                          DB\f8wEndev.cfg" (-DCPU32MHZ -DROOT=__near_func    #
#                          -DMAC_CFG_TX_DATA_MAX=3 -DMAC_CFG_TX_MAX=6         #
#                          -DMAC_CFG_RX_MAX=3) -f "G:\IAR                     #
#                          projects\EndDevice_DHT11\Projects\zstack\Samples\S #
#                          ampleApp\CC2530DB\..\..\..\Tools\CC2530DB\f8wConfi #
#                          g.cfg" (-DZIGBEEPRO -DSECURE=0                     #
#                          -DZG_SECURE_DYNAMIC=0 -DREFLECTOR                  #
#                          -DDEFAULT_CHANLIST=0x00000800                      #
#                          -DZDAPP_CONFIG_PAN_ID=0xFF00                       #
#                          -DNWK_START_DELAY=100 -DEXTENDED_JOINING_RANDOM_MA #
#                          SK=0x007F -DBEACON_REQUEST_DELAY=100               #
#                          -DBEACON_REQ_DELAY_MASK=0x00FF                     #
#                          -DLINK_STATUS_JITTER_MASK=0x007F                   #
#                          -DROUTE_EXPIRY_TIME=30 -DAPSC_ACK_WAIT_DURATION_PO #
#                          LLED=3000 -DNWK_INDIRECT_MSG_TIMEOUT=7             #
#                          -DMAX_RREQ_ENTRIES=8 -DAPSC_MAX_FRAME_RETRIES=3    #
#                          -DNWK_MAX_DATA_RETRIES=2                           #
#                          -DMAX_POLL_FAILURE_RETRIES=2 -DMAX_BCAST=9         #
#                          -DAPS_MAX_GROUPS=16 -DMAX_RTG_ENTRIES=40           #
#                          -DNWK_MAX_BINDING_ENTRIES=4                        #
#                          -DMAX_BINDING_CLUSTER_IDS=4 "-DDEFAULT_KEY={0x01,  #
#                          0x03, 0x05, 0x07, 0x09, 0x0B, 0x0D, 0x0F, 0x00,    #
#                          0x02, 0x04, 0x06, 0x08, 0x0A, 0x0C, 0x0D}"         #
#                          -DMAC_MAX_FRAME_SIZE=116                           #
#                          -DZDNWKMGR_MIN_TRANSMISSIONS=20 "-DCONST=const     #
#                          __code" -DGENERIC=__generic                        #
#                          -DRFD_RCVC_ALWAYS_ON=FALSE -DPOLL_RATE=1000        #
#                          -DQUEUED_POLL_RATE=100 -DRESPONSE_POLL_RATE=100)   #
#                          -DREJOIN_POLL_RATE=440 "G:\IAR                     #
#                          projects\EndDevice_DHT11\Projects\zstack\Samples\S #
#                          ampleApp\Source\SampleApp.c" -D NWK_AUTO_POLL -D   #
#                          ZTOOL_P1 -D xMT_TASK -D xMT_SYS_FUNC -D            #
#                          xMT_ZDO_FUNC -D LCD_SUPPORTED=DEBUG -lC "G:\IAR    #
#                          projects\EndDevice_DHT11\Projects\zstack\Samples\S #
#                          ampleApp\CC2530DB\EndDeviceEB\List\" -lA "G:\IAR   #
#                          projects\EndDevice_DHT11\Projects\zstack\Samples\S #
#                          ampleApp\CC2530DB\EndDeviceEB\List\"               #
#                          --diag_suppress Pe001,Pa010 -o "G:\IAR             #
#                          projects\EndDevice_DHT11\Projects\zstack\Samples\S #
#                          ampleApp\CC2530DB\EndDeviceEB\Obj\" -e             #
#                          --no_code_motion --debug --core=plain --dptr=16,1  #
#                          --data_model=large --code_model=banked             #
#                          --calling_convention=xdata_reentrant               #
#                          --place_constants=data_rom --nr_virtual_regs 16    #
#                          -I "G:\IAR projects\EndDevice_DHT11\Projects\zstac #
#                          k\Samples\SampleApp\CC2530DB\" -I "G:\IAR          #
#                          projects\EndDevice_DHT11\Projects\zstack\Samples\S #
#                          ampleApp\CC2530DB\..\Source\" -I "G:\IAR           #
#                          projects\EndDevice_DHT11\Projects\zstack\Samples\S #
#                          ampleApp\CC2530DB\..\..\..\ZMain\TI2530DB\" -I     #
#                          "G:\IAR projects\EndDevice_DHT11\Projects\zstack\S #
#                          amples\SampleApp\CC2530DB\..\..\..\..\..\Component #
#                          s\hal\include\" -I "G:\IAR                         #
#                          projects\EndDevice_DHT11\Projects\zstack\Samples\S #
#                          ampleApp\CC2530DB\..\..\..\..\..\Components\hal\ta #
#                          rget\CC2530EB\" -I "G:\IAR                         #
#                          projects\EndDevice_DHT11\Projects\zstack\Samples\S #
#                          ampleApp\CC2530DB\..\..\..\..\..\Components\mac\in #
#                          clude\" -I "G:\IAR projects\EndDevice_DHT11\Projec #
#                          ts\zstack\Samples\SampleApp\CC2530DB\..\..\..\..\. #
#                          .\Components\mac\high_level\" -I "G:\IAR           #
#                          projects\EndDevice_DHT11\Projects\zstack\Samples\S #
#                          ampleApp\CC2530DB\..\..\..\..\..\Components\mac\lo #
#                          w_level\srf04\" -I "G:\IAR                         #
#                          projects\EndDevice_DHT11\Projects\zstack\Samples\S #
#                          ampleApp\CC2530DB\..\..\..\..\..\Components\mac\lo #
#                          w_level\srf04\single_chip\" -I "G:\IAR             #
#                          projects\EndDevice_DHT11\Projects\zstack\Samples\S #
#                          ampleApp\CC2530DB\..\..\..\..\..\Components\mt\"   #
#                          -I "G:\IAR projects\EndDevice_DHT11\Projects\zstac #
#                          k\Samples\SampleApp\CC2530DB\..\..\..\..\..\Compon #
#                          ents\osal\include\" -I "G:\IAR                     #
#                          projects\EndDevice_DHT11\Projects\zstack\Samples\S #
#                          ampleApp\CC2530DB\..\..\..\..\..\Components\servic #
#                          es\saddr\" -I "G:\IAR projects\EndDevice_DHT11\Pro #
#                          jects\zstack\Samples\SampleApp\CC2530DB\..\..\..\. #
#                          .\..\Components\services\sdata\" -I "G:\IAR        #
#                          projects\EndDevice_DHT11\Projects\zstack\Samples\S #
#                          ampleApp\CC2530DB\..\..\..\..\..\Components\stack\ #
#                          af\" -I "G:\IAR projects\EndDevice_DHT11\Projects\ #
#                          zstack\Samples\SampleApp\CC2530DB\..\..\..\..\..\C #
#                          omponents\stack\nwk\" -I "G:\IAR                   #
#                          projects\EndDevice_DHT11\Projects\zstack\Samples\S #
#                          ampleApp\CC2530DB\..\..\..\..\..\Components\stack\ #
#                          sapi\" -I "G:\IAR projects\EndDevice_DHT11\Project #
#                          s\zstack\Samples\SampleApp\CC2530DB\..\..\..\..\.. #
#                          \Components\stack\sec\" -I "G:\IAR                 #
#                          projects\EndDevice_DHT11\Projects\zstack\Samples\S #
#                          ampleApp\CC2530DB\..\..\..\..\..\Components\stack\ #
#                          sys\" -I "G:\IAR projects\EndDevice_DHT11\Projects #
#                          \zstack\Samples\SampleApp\CC2530DB\..\..\..\..\..\ #
#                          Components\stack\zdo\" -I "G:\IAR                  #
#                          projects\EndDevice_DHT11\Projects\zstack\Samples\S #
#                          ampleApp\CC2530DB\..\..\..\..\..\Components\zmac\" #
#                           -I "G:\IAR projects\EndDevice_DHT11\Projects\zsta #
#                          ck\Samples\SampleApp\CC2530DB\..\..\..\..\..\Compo #
#                          nents\zmac\f8w\" -Ohz --require_prototypes         #
#    List file          =  G:\IAR projects\EndDevice_DHT11\Projects\zstack\Sa #
#                          mples\SampleApp\CC2530DB\EndDeviceEB\List\SampleAp #
#                          p.lst                                              #
#    Object file        =  G:\IAR projects\EndDevice_DHT11\Projects\zstack\Sa #
#                          mples\SampleApp\CC2530DB\EndDeviceEB\Obj\SampleApp #
#                          .r51                                               #
#                                                                             #
#                                                                             #
###############################################################################

G:\IAR projects\EndDevice_DHT11\Projects\zstack\Samples\SampleApp\Source\SampleApp.c
      1          /**************************************************************************************************
      2          Filename:       SampleApp.c
      3          Revised:        $Date: 2009-03-18 15:56:27 -0700 (Wed, 18 Mar 2009) $
      4          Revision:       $Revision: 19453 $
      5          
      6          Description:    Sample Application (no Profile).
      7          
      8          
      9          Copyright 2007 Texas Instruments Incorporated. All rights reserved.
     10          
     11          IMPORTANT: Your use of this Software is limited to those specific rights
     12          granted under the terms of a software license agreement between the user
     13          who downloaded the software, his/her employer (which must be your employer)
     14          and Texas Instruments Incorporated (the "License").  You may not use this
     15          Software unless you agree to abide by the terms of the License. The License
     16          limits your use, and you acknowledge, that the Software may not be modified,
     17          copied or distributed unless embedded on a Texas Instruments microcontroller
     18          or used solely and exclusively in conjunction with a Texas Instruments radio
     19          frequency transceiver, which is integrated into your product.  Other than for
     20          the foregoing purpose, you may not use, reproduce, copy, prepare derivative
     21          works of, modify, distribute, perform, display or sell this Software and/or
     22          its documentation for any purpose.
     23          
     24          YOU FURTHER ACKNOWLEDGE AND AGREE THAT THE SOFTWARE AND DOCUMENTATION ARE
     25          PROVIDED AS IS?WITHOUT WARRANTY OF ANY KIND, EITHER EXPRESS OR IMPLIED,
     26          INCLUDING WITHOUT LIMITATION, ANY WARRANTY OF MERCHANTABILITY, TITLE,
     27          NON-INFRINGEMENT AND FITNESS FOR A PARTICULAR PURPOSE. IN NO EVENT SHALL
     28          TEXAS INSTRUMENTS OR ITS LICENSORS BE LIABLE OR OBLIGATED UNDER CONTRACT,
     29          NEGLIGENCE, STRICT LIABILITY, CONTRIBUTION, BREACH OF WARRANTY, OR OTHER
     30          LEGAL EQUITABLE THEORY ANY DIRECT OR INDIRECT DAMAGES OR EXPENSES
     31          INCLUDING BUT NOT LIMITED TO ANY INCIDENTAL, SPECIAL, INDIRECT, PUNITIVE
     32          OR CONSEQUENTIAL DAMAGES, LOST PROFITS OR LOST DATA, COST OF PROCUREMENT
     33          OF SUBSTITUTE GOODS, TECHNOLOGY, SERVICES, OR ANY CLAIMS BY THIRD PARTIES
     34          (INCLUDING BUT NOT LIMITED TO ANY DEFENSE THEREOF), OR OTHER SIMILAR COSTS.
     35          
     36          Should you have any questions regarding your right to use this Software,
     37          contact Texas Instruments Incorporated at www.TI.com.
     38          **************************************************************************************************/
     39          
     40          /*********************************************************************
     41          This application isn't intended to do anything useful, it is
     42          intended to be a simple example of an application's structure.
     43          
     44          This application sends it's messages either as broadcast or
     45          broadcast filtered group messages.  The other (more normal)
     46          message addressing is unicast.  Most of the other sample
     47          applications are written to support the unicast message model.
     48          
     49          Key control:
     50          SW1:  Sends a flash command to all devices in Group 1.
     51          SW2:  Adds/Removes (toggles) this device in and out
     52          of Group 1.  This will enable and disable the
     53          reception of the flash command.
     54          *********************************************************************/
     55          
     56          /*********************************************************************
     57          * INCLUDES
     58          */
     59          #include "OSAL.h"
     60          #include "ZGlobals.h"
     61          #include "AF.h"
     62          #include "aps_groups.h"
     63          #include "ZDApp.h"
     64          #include "ZDObject.h"
     65          #include "ZDProfile.h"
     66          #include <string.h>
     67          #include "DebugTrace.h"
     68          #include "ZComDef.h"
     69          
     70          #include "SampleApp.h"
     71          #include "SampleAppHw.h"
     72          
     73          #include "OnBoard.h"

   \                                 In  segment SFR_AN, at 0xf3
   \   unsigned char volatile __sfr P0SEL
   \                     P0SEL:
   \   000000                DS 1
     74          
     75          /* HAL */
     76          #include "hal_lcd.h"
     77          #include "hal_led.h"
     78          #include "hal_key.h"
     79          
     80          #include  "MT_UART.h" //此处用于串口
     81          #include  "DHT11.h"   //温湿度专用
     82          
     83          /*********************************************************************
     84          * MACROS
     85          */
     86          
     87          /*********************************************************************
     88          * CONSTANTS
     89          */
     90          
     91          /*********************************************************************
     92          * TYPEDEFS
     93          */
     94          
     95          /*********************************************************************
     96          * GLOBAL VARIABLES
     97          */
     98          
     99          // This list should be filled with Application specific Cluster IDs.

   \                                 In  segment XDATA_ROM_C, align 1
    100          const cId_t SampleApp_ClusterList[SAMPLEAPP_MAX_CLUSTERS] =
   \                     SampleApp_ClusterList:
   \   000000   0100         DW 1
   \   000002   0200         DW 2
   \   000004   0000         DW 0
   \   000006   0000         DW 0
   \   000008   0000         DW 0
    101          {
    102            SAMPLEAPP_PERIODIC_CLUSTERID,
    103            SAMPLEAPP_FLASH_CLUSTERID
    104          };
    105          

   \                                 In  segment XDATA_ROM_C, align 1
    106          const SimpleDescriptionFormat_t SampleApp_SimpleDesc =
   \                     SampleApp_SimpleDesc:
   \   000000   14           DB 20
   \   000001   080F         DW 3848
   \   000003   0100         DW 1
   \   000005   00           DB 0
   \   000006   05           DB 5
   \   000007   ....         DW SampleApp_ClusterList
   \   000009   05           DB 5
   \   00000A   ....         DW SampleApp_ClusterList
    107          {
    108            SAMPLEAPP_ENDPOINT,              //  int Endpoint;
    109            SAMPLEAPP_PROFID,                //  uint16 AppProfId[2];
    110            SAMPLEAPP_DEVICEID,              //  uint16 AppDeviceId[2];
    111            SAMPLEAPP_DEVICE_VERSION,        //  int   AppDevVer:4;
    112            SAMPLEAPP_FLAGS,                 //  int   AppFlags:4;
    113            SAMPLEAPP_MAX_CLUSTERS,          //  uint8  AppNumInClusters;
    114            (cId_t *)SampleApp_ClusterList,  //  uint8 *pAppInClusterList;
    115            SAMPLEAPP_MAX_CLUSTERS,          //  uint8  AppNumInClusters;
    116            (cId_t *)SampleApp_ClusterList   //  uint8 *pAppInClusterList;
    117          };
    118          
    119          // This is the Endpoint/Interface description.  It is defined here, but
    120          // filled-in in SampleApp_Init().  Another way to go would be to fill
    121          // in the structure here and make it a "const" (in code space).  The
    122          // way it's defined in this sample app it is define in RAM.

   \                                 In  segment XDATA_Z, align 1, keep-with-next
    123          endPointDesc_t SampleApp_epDesc;
   \                     SampleApp_epDesc:
   \   000000                DS 6
   \   000006                REQUIRE __INIT_XDATA_Z
    124          
    125          /*********************************************************************
    126          * EXTERNAL VARIABLES
    127          */
    128          
    129          /*********************************************************************
    130          * EXTERNAL FUNCTIONS
    131          */
    132          
    133          /*********************************************************************
    134          * LOCAL VARIABLES
    135          */

   \                                 In  segment XDATA_Z, align 1, keep-with-next
    136          uint8 SampleApp_TaskID;   // Task ID for internal task/event processing
   \                     SampleApp_TaskID:
   \   000000                DS 1
   \   000001                REQUIRE __INIT_XDATA_Z
    137          // This variable will be received when
    138          // SampleApp_Init() is called.

   \                                 In  segment XDATA_Z, align 1, keep-with-next
    139          devStates_t SampleApp_NwkState;
   \                     SampleApp_NwkState:
   \   000000                DS 1
   \   000001                REQUIRE __INIT_XDATA_Z
    140          

   \                                 In  segment XDATA_Z, align 1, keep-with-next
    141          uint8 SampleApp_TransID;  // This is the unique message ID (counter)
   \                     SampleApp_TransID:
   \   000000                DS 1
   \   000001                REQUIRE __INIT_XDATA_Z
    142          

   \                                 In  segment XDATA_Z, align 1, keep-with-next
    143          afAddrType_t SampleApp_Periodic_DstAddr;
   \                     SampleApp_Periodic_DstAddr:
   \   000000                DS 12
   \   00000C                REQUIRE __INIT_XDATA_Z

   \                                 In  segment XDATA_Z, align 1, keep-with-next
    144          afAddrType_t SampleApp_Flash_DstAddr;
   \                     SampleApp_Flash_DstAddr:
   \   000000                DS 12
   \   00000C                REQUIRE __INIT_XDATA_Z
    145          

   \                                 In  segment XDATA_Z, align 1, keep-with-next
    146          afAddrType_t Point_To_Point_DstAddr;//网蜂点对点通信定义
   \                     Point_To_Point_DstAddr:
   \   000000                DS 12
   \   00000C                REQUIRE __INIT_XDATA_Z
    147          

   \                                 In  segment XDATA_Z, align 1, keep-with-next
    148          aps_Group_t SampleApp_Group;
   \                     SampleApp_Group:
   \   000000                DS 18
   \   000012                REQUIRE __INIT_XDATA_Z
    149          

   \                                 In  segment XDATA_Z, align 1, keep-with-next
    150          uint8 SampleAppPeriodicCounter = 0;
   \                     SampleAppPeriodicCounter:
   \   000000                DS 1
   \   000001                REQUIRE __INIT_XDATA_Z

   \                                 In  segment XDATA_Z, align 1, keep-with-next
    151          uint8 SampleAppFlashCounter = 0;
   \                     SampleAppFlashCounter:
   \   000000                DS 1
   \   000001                REQUIRE __INIT_XDATA_Z
    152          
    153          /*********************************************************************
    154          * LOCAL FUNCTIONS
    155          */
    156          void SampleApp_HandleKeys( uint8 shift, uint8 keys );
    157          void SampleApp_MessageMSGCB( afIncomingMSGPacket_t *pckt );
    158          void SampleApp_SendPeriodicMessage( void );
    159          void SampleApp_SendFlashMessage( uint16 flashTime );
    160          void SampleApp_SendPointToPointMessage(void );
    161          void To_string(uint8 *dest, char *src,uint8 length);
    162          

   \                                 In  segment BANKED_CODE, align 1, keep-with-next
    163          void To_string(uint8 *dest, char *src,uint8 length)
   \                     To_string:
    164          {
   \   000000   74F6         MOV     A,#-0xa
   \   000002   12....       LCALL   ?BANKED_ENTER_XDATA
   \   000005                ; Saved register size: 10
   \   000005                ; Auto size: 0
   \   000005   E9           MOV     A,R1
   \   000006   FE           MOV     R6,A
    165            uint8 *xad;
    166            uint8 i = 0;
    167            uint8 ch;
    168            xad = src + length - 1;
                       ^
Warning[Pe513]: a value of type "char *" cannot be assigned to an entity of
          type "unsigned char *"
   \   000007   8E..         MOV     ?V0 + 0,R6
   \   000009   EC           MOV     A,R4
   \   00000A   25..         ADD     A,?V0 + 0
   \   00000C   F8           MOV     R0,A
   \   00000D   ED           MOV     A,R5
   \   00000E   3400         ADDC    A,#0x0
   \   000010   F9           MOV     R1,A
   \   000011   E8           MOV     A,R0
   \   000012   24FF         ADD     A,#-0x1
   \   000014   18           DEC     R0
   \   000015   E9           MOV     A,R1
   \   000016   34FF         ADDC    A,#-0x1
   \   000018   F9           MOV     R1,A
    169            for(i = 0;i < length; i++, xad--)
   \   000019   7F00         MOV     R7,#0x0
   \   00001B   8020         SJMP    ??To_string_0
    170            {
    171              ch = (*xad >> 4) & 0x0f;
    172              dest[i<<1] = ch + ((ch < 10) ? '0' : '7');
    173              ch = *xad & 0x0f;
    174              dest[(i<<1) + 1] = ch + (( ch < 10 ) ? '0' : '7');
   \                     ??To_string_1:
   \   00001D   7C37         MOV     R4,#0x37
   \                     ??To_string_2:
   \   00001F   EC           MOV     A,R4
   \   000020   25..         ADD     A,?V0 + 0
   \   000022   C0E0         PUSH    A
   \   000024   EF           MOV     A,R7
   \   000025   C3           CLR     C
   \   000026   33           RLC     A
   \   000027   FC           MOV     R4,A
   \   000028   EA           MOV     A,R2
   \   000029   2C           ADD     A,R4
   \   00002A   F582         MOV     DPL,A
   \   00002C   EB           MOV     A,R3
   \   00002D   3D           ADDC    A,R5
   \   00002E   F583         MOV     DPH,A
   \   000030   A3           INC     DPTR
   \   000031   D0E0         POP     A
   \   000033   F0           MOVX    @DPTR,A
   \   000034   0F           INC     R7
   \   000035   E8           MOV     A,R0
   \   000036   24FF         ADD     A,#-0x1
   \   000038   18           DEC     R0
   \   000039   E9           MOV     A,R1
   \   00003A   34FF         ADDC    A,#-0x1
   \   00003C   F9           MOV     R1,A
   \                     ??To_string_0:
   \   00003D   EF           MOV     A,R7
   \   00003E   C3           CLR     C
   \   00003F   9E           SUBB    A,R6
   \   000040   503E         JNC     ??To_string_3
   \   000042   8882         MOV     DPL,R0
   \   000044   8983         MOV     DPH,R1
   \   000046   E0           MOVX    A,@DPTR
   \   000047   C4           SWAP    A
   \   000048   540F         ANL     A,#0xf
   \   00004A   F5..         MOV     ?V0 + 0,A
   \   00004C   C3           CLR     C
   \   00004D   940A         SUBB    A,#0xa
   \   00004F   5004         JNC     ??To_string_4
   \   000051   7C30         MOV     R4,#0x30
   \   000053   8002         SJMP    ??To_string_5
   \                     ??To_string_4:
   \   000055   7C37         MOV     R4,#0x37
   \                     ??To_string_5:
   \   000057   EC           MOV     A,R4
   \   000058   25..         ADD     A,?V0 + 0
   \   00005A   C0E0         PUSH    A
   \   00005C   EF           MOV     A,R7
   \   00005D   C3           CLR     C
   \   00005E   33           RLC     A
   \   00005F   FC           MOV     R4,A
   \   000060   E4           CLR     A
   \   000061   33           RLC     A
   \   000062   FD           MOV     R5,A
   \   000063   EA           MOV     A,R2
   \   000064   2C           ADD     A,R4
   \   000065   F582         MOV     DPL,A
   \   000067   EB           MOV     A,R3
   \   000068   3D           ADDC    A,R5
   \   000069   F583         MOV     DPH,A
   \   00006B   D0E0         POP     A
   \   00006D   F0           MOVX    @DPTR,A
   \   00006E   8882         MOV     DPL,R0
   \   000070   8983         MOV     DPH,R1
   \   000072   E0           MOVX    A,@DPTR
   \   000073   540F         ANL     A,#0xf
   \   000075   F5..         MOV     ?V0 + 0,A
   \   000077   C3           CLR     C
   \   000078   940A         SUBB    A,#0xa
   \   00007A   50A1         JNC     ??To_string_1
   \   00007C   7C30         MOV     R4,#0x30
   \   00007E   809F         SJMP    ??To_string_2
    175            } 
    176          }
   \                     ??To_string_3:
   \   000080   80..         SJMP    ??Subroutine7_0

   \                                 In  segment BANKED_CODE, align 1, keep-with-next
   \                     ??Subroutine7_0:
   \   000000   7F02         MOV     R7,#0x2
   \   000002   02....       LJMP    ?BANKED_LEAVE_XDATA
    177          
    178          /*********************************************************************
    179          * NETWORK LAYER CALLBACKS
    180          */
    181          
    182          /*********************************************************************
    183          * PUBLIC FUNCTIONS
    184          */
    185          
    186          /*********************************************************************
    187          * @fn      SampleApp_Init
    188          *
    189          * @brief   Initialization function for the Generic App Task.
    190          *          This is called during initialization and should contain
    191          *          any application specific initialization (ie. hardware
    192          *          initialization/setup, table initialization, power up
    193          *          notificaiton ... ).
    194          *
    195          * @param   task_id - the ID assigned by OSAL.  This ID should be
    196          *                    used to send messages and set timers.
    197          *
    198          * @return  none
    199          */

   \                                 In  segment BANKED_CODE, align 1, keep-with-next
    200          void SampleApp_Init( uint8 task_id )
   \                     SampleApp_Init:
    201          {
   \   000000   74F5         MOV     A,#-0xb
   \   000002   12....       LCALL   ?BANKED_ENTER_XDATA
   \   000005                ; Saved register size: 11
   \   000005                ; Auto size: 0
   \   000005   E9           MOV     A,R1
   \   000006   FE           MOV     R6,A
    202            SampleApp_TaskID = task_id;
   \   000007   90....       MOV     DPTR,#SampleApp_TaskID
   \   00000A   F0           MOVX    @DPTR,A
    203            SampleApp_NwkState = DEV_INIT;
   \   00000B   90....       MOV     DPTR,#SampleApp_NwkState
   \   00000E   7401         MOV     A,#0x1
   \   000010   F0           MOVX    @DPTR,A
    204            SampleApp_TransID = 0;
   \   000011   90....       MOV     DPTR,#SampleApp_TransID
   \   000014   E4           CLR     A
   \   000015   F0           MOVX    @DPTR,A
    205            
    206            MT_UartInit();//串口初始化
   \   000016                ; Setup parameters for call to function MT_UartInit
   \   000016   12....       LCALL   ??MT_UartInit?relay
    207            MT_UartRegisterTaskID(task_id);//登记任务号
   \   000019                ; Setup parameters for call to function MT_UartRegisterTaskID
   \   000019   EE           MOV     A,R6
   \   00001A   F9           MOV     R1,A
   \   00001B   12....       LCALL   ??MT_UartRegisterTaskID?relay
    208            HalUARTWrite(0,"Hello World\n",12); //（串口0，'字符'，字符个数。）
   \   00001E                ; Setup parameters for call to function HalUARTWrite
   \   00001E   7C0C         MOV     R4,#0xc
   \   000020   7D00         MOV     R5,#0x0
   \   000022   7A..         MOV     R2,#`?<Constant "Hello World\\n">` & 0xff
   \   000024   7B..         MOV     R3,#(`?<Constant "Hello World\\n">` >> 8) & 0xff
   \   000026   7900         MOV     R1,#0x0
   \   000028   12....       LCALL   ??HalUARTWrite?relay
    209            
    210            //温湿度传感器初始化 P0.6
    211            P0SEL &= 0xbf;
   \   00002B   53F3BF       ANL     0xf3,#0xbf
    212            
    213            // Device hardware initialization can be added here or in main() (Zmain.c).
    214            // If the hardware is application specific - add it here.
    215            // If the hardware is other parts of the device add it in main().
    216            
    217          #if defined ( BUILD_ALL_DEVICES )
    218            // The "Demo" target is setup to have BUILD_ALL_DEVICES and HOLD_AUTO_START
    219            // We are looking at a jumper (defined in SampleAppHw.c) to be jumpered
    220            // together - if they are - we will start up a coordinator. Otherwise,
    221            // the device will start as a router.
    222            if ( readCoordinatorJumper() )
    223              zgDeviceLogicalType = ZG_DEVICETYPE_COORDINATOR;
    224            else
    225              zgDeviceLogicalType = ZG_DEVICETYPE_ROUTER;
    226          #endif // BUILD_ALL_DEVICES
    227            
    228          #if defined ( HOLD_AUTO_START )
    229            // HOLD_AUTO_START is a compile option that will surpress ZDApp
    230            //  from starting the device and wait for the application to
    231            //  start the device.
    232            ZDOInitDevice(0);
    233          #endif
    234            
    235            // Setup for the periodic message's destination address
    236            // Broadcast to everyone
    237            SampleApp_Periodic_DstAddr.addrMode = (afAddrMode_t)AddrBroadcast;
   \   00002E   90....       MOV     DPTR,#SampleApp_Periodic_DstAddr + 8
   \   000031   740F         MOV     A,#0xf
   \   000033   F0           MOVX    @DPTR,A
    238            SampleApp_Periodic_DstAddr.endPoint = SAMPLEAPP_ENDPOINT;
   \   000034   A3           INC     DPTR
   \   000035   7414         MOV     A,#0x14
   \   000037   F0           MOVX    @DPTR,A
    239            SampleApp_Periodic_DstAddr.addr.shortAddr = 0xFFFF;
   \   000038   90....       MOV     DPTR,#SampleApp_Periodic_DstAddr
   \   00003B   74FF         MOV     A,#-0x1
   \   00003D   F0           MOVX    @DPTR,A
   \   00003E   A3           INC     DPTR
   \   00003F   F0           MOVX    @DPTR,A
    240            
    241            // Setup for the flash command's destination address - Group 1
    242            SampleApp_Flash_DstAddr.addrMode = (afAddrMode_t)afAddrGroup;
   \   000040   90....       MOV     DPTR,#SampleApp_Flash_DstAddr + 8
   \   000043   7401         MOV     A,#0x1
   \   000045   F0           MOVX    @DPTR,A
    243            SampleApp_Flash_DstAddr.endPoint = SAMPLEAPP_ENDPOINT;
   \   000046   A3           INC     DPTR
   \   000047   7414         MOV     A,#0x14
   \   000049   F0           MOVX    @DPTR,A
    244            SampleApp_Flash_DstAddr.addr.shortAddr = SAMPLEAPP_FLASH_GROUP;
   \   00004A   90....       MOV     DPTR,#SampleApp_Flash_DstAddr
   \   00004D   7401         MOV     A,#0x1
   \   00004F   F0           MOVX    @DPTR,A
   \   000050   A3           INC     DPTR
   \   000051   E4           CLR     A
   \   000052   F0           MOVX    @DPTR,A
    245            
    246            // 网蜂点对点通讯定义
    247            Point_To_Point_DstAddr.addrMode = (afAddrMode_t)Addr16Bit;//点播
   \   000053   90....       MOV     DPTR,#Point_To_Point_DstAddr + 8
   \   000056   7402         MOV     A,#0x2
   \   000058   F0           MOVX    @DPTR,A
    248            Point_To_Point_DstAddr.endPoint = SAMPLEAPP_ENDPOINT;
   \   000059   A3           INC     DPTR
   \   00005A   7414         MOV     A,#0x14
   \   00005C   F0           MOVX    @DPTR,A
    249            Point_To_Point_DstAddr.addr.shortAddr = 0x0000; //发给协调器
   \   00005D   90....       MOV     DPTR,#Point_To_Point_DstAddr
   \   000060   E4           CLR     A
   \   000061   F0           MOVX    @DPTR,A
   \   000062   A3           INC     DPTR
   \   000063   F0           MOVX    @DPTR,A
    250            
    251            
    252            // Fill out the endpoint description.
    253            SampleApp_epDesc.endPoint = SAMPLEAPP_ENDPOINT;
   \   000064   90....       MOV     DPTR,#SampleApp_epDesc
   \   000067   7414         MOV     A,#0x14
   \   000069   F0           MOVX    @DPTR,A
    254            SampleApp_epDesc.task_id = &SampleApp_TaskID;
   \   00006A   A3           INC     DPTR
   \   00006B   74..         MOV     A,#SampleApp_TaskID & 0xff
   \   00006D   F0           MOVX    @DPTR,A
   \   00006E   A3           INC     DPTR
   \   00006F   74..         MOV     A,#(SampleApp_TaskID >> 8) & 0xff
   \   000071   F0           MOVX    @DPTR,A
    255            SampleApp_epDesc.simpleDesc
    256              = (SimpleDescriptionFormat_t *)&SampleApp_SimpleDesc;
   \   000072   A3           INC     DPTR
   \   000073   74..         MOV     A,#SampleApp_SimpleDesc & 0xff
   \   000075   F0           MOVX    @DPTR,A
   \   000076   A3           INC     DPTR
   \   000077   74..         MOV     A,#(SampleApp_SimpleDesc >> 8) & 0xff
   \   000079   F0           MOVX    @DPTR,A
    257            SampleApp_epDesc.latencyReq = noLatencyReqs;
   \   00007A   A3           INC     DPTR
   \   00007B   E4           CLR     A
   \   00007C   F0           MOVX    @DPTR,A
    258            
    259            // Register the endpoint description with the AF
    260            afRegister( &SampleApp_epDesc );
   \   00007D                ; Setup parameters for call to function afRegister
   \   00007D   7A..         MOV     R2,#SampleApp_epDesc & 0xff
   \   00007F   7B..         MOV     R3,#(SampleApp_epDesc >> 8) & 0xff
   \   000081   12....       LCALL   ??afRegister?relay
    261            
    262            // Register for all key events - This app will handle all key events
    263            RegisterForKeys( SampleApp_TaskID );
   \   000084                ; Setup parameters for call to function RegisterForKeys
   \   000084   90....       MOV     DPTR,#SampleApp_TaskID
   \   000087   E0           MOVX    A,@DPTR
   \   000088   F9           MOV     R1,A
   \   000089   12....       LCALL   ??RegisterForKeys?relay
    264            
    265            // By default, all devices start out in Group 1
    266            SampleApp_Group.ID = 0x0001;
   \   00008C   90....       MOV     DPTR,#SampleApp_Group
   \   00008F   7401         MOV     A,#0x1
   \   000091   F0           MOVX    @DPTR,A
   \   000092   A3           INC     DPTR
   \   000093   E4           CLR     A
   \   000094   F0           MOVX    @DPTR,A
    267            osal_memcpy( SampleApp_Group.name, "Group 1", 7  );
   \   000095                ; Setup parameters for call to function osal_memcpy
   \   000095   75....       MOV     ?V0 + 0,#`?<Constant "Group 1">` & 0xff
   \   000098   75....       MOV     ?V0 + 1,#(`?<Constant "Group 1">` >> 8) & 0xff
   \   00009B   F5..         MOV     ?V0 + 2,A
   \   00009D   78..         MOV     R0,#?V0 + 0
   \   00009F   12....       LCALL   ?PUSH_XSTACK_I_THREE
   \   0000A2   7C07         MOV     R4,#0x7
   \   0000A4   7D00         MOV     R5,#0x0
   \   0000A6   7A..         MOV     R2,#(SampleApp_Group + 2) & 0xff
   \   0000A8   7B..         MOV     R3,#((SampleApp_Group + 2) >> 8) & 0xff
   \   0000AA   12....       LCALL   ??osal_memcpy?relay
   \   0000AD   7403         MOV     A,#0x3
   \   0000AF   12....       LCALL   ?DEALLOC_XSTACK8
    268            aps_AddGroup( SAMPLEAPP_ENDPOINT, &SampleApp_Group );
   \   0000B2                ; Setup parameters for call to function aps_AddGroup
   \   0000B2   7A..         MOV     R2,#SampleApp_Group & 0xff
   \   0000B4   7B..         MOV     R3,#(SampleApp_Group >> 8) & 0xff
   \   0000B6   7914         MOV     R1,#0x14
   \   0000B8   12....       LCALL   ??aps_AddGroup?relay
    269            
    270          #if defined ( LCD_SUPPORTED )
    271            HalLcdWriteString( "SampleApp", HAL_LCD_LINE_1 );
   \   0000BB                ; Setup parameters for call to function HalLcdWriteString
   \   0000BB   7901         MOV     R1,#0x1
   \   0000BD   7A..         MOV     R2,#`?<Constant "SampleApp">` & 0xff
   \   0000BF   7B..         MOV     R3,#(`?<Constant "SampleApp">` >> 8) & 0xff
   \   0000C1   12....       LCALL   ??HalLcdWriteString?relay
    272          #endif
    273          }
   \   0000C4                REQUIRE ?Subroutine1
   \   0000C4                REQUIRE P0SEL
   \   0000C4                ; // Fall through to label ?Subroutine1

   \                                 In  segment BANKED_CODE, align 1, keep-with-next
   \                     ?Subroutine1:
   \   000000   7F03         MOV     R7,#0x3
   \   000002   02....       LJMP    ?BANKED_LEAVE_XDATA
    274          
    275          /*********************************************************************
    276          * @fn      SampleApp_ProcessEvent
    277          *
    278          * @brief   Generic Application Task event processor.  This function
    279          *          is called to process all events for the task.  Events
    280          *          include timers, messages and any other user defined events.
    281          *
    282          * @param   task_id  - The OSAL assigned task ID.
    283          * @param   events - events to process.  This is a bit map and can
    284          *                   contain more than one event.
    285          *
    286          * @return  none
    287          */

   \                                 In  segment BANKED_CODE, align 1, keep-with-next
    288          uint16 SampleApp_ProcessEvent( uint8 task_id, uint16 events )
   \                     SampleApp_ProcessEvent:
    289          {
   \   000000   74F4         MOV     A,#-0xc
   \   000002   12....       LCALL   ?BANKED_ENTER_XDATA
   \   000005                ; Saved register size: 12
   \   000005                ; Auto size: 8
   \   000005   74F8         MOV     A,#-0x8
   \   000007   12....       LCALL   ?ALLOC_XSTACK8
   \   00000A   EA           MOV     A,R2
   \   00000B   FE           MOV     R6,A
   \   00000C   EB           MOV     A,R3
   \   00000D   FF           MOV     R7,A
    290            afIncomingMSGPacket_t *MSGpkt;
    291            (void)task_id;  // Intentionally unreferenced parameter
    292            
    293            if ( events & SYS_EVENT_MSG )
   \   00000E   5480         ANL     A,#0x80
   \   000010   6075         JZ      ??SampleApp_ProcessEvent_0
    294            {
    295              MSGpkt = (afIncomingMSGPacket_t *)osal_msg_receive( SampleApp_TaskID );
   \   000012                ; Setup parameters for call to function osal_msg_receive
   \   000012   8026         SJMP    ??SampleApp_ProcessEvent_1
    296              while ( MSGpkt )
    297              {
    298                switch ( MSGpkt->hdr.event )
    299                {
    300                  // Received when a key is pressed
    301                case KEY_CHANGE:
    302                  SampleApp_HandleKeys( ((keyChange_t *)MSGpkt)->state, ((keyChange_t *)MSGpkt)->keys );
    303                  break;
    304                  
    305                  // Received when a messages is received (OTA) for this endpoint
    306                case AF_INCOMING_MSG_CMD:
    307                  SampleApp_MessageMSGCB( MSGpkt );
    308                  break;
    309                  
    310                  // Received whenever the device changes state in the network
    311                case ZDO_STATE_CHANGE:
    312                  SampleApp_NwkState = (devStates_t)(MSGpkt->hdr.status);
   \                     ??SampleApp_ProcessEvent_2:
   \   000014   A3           INC     DPTR
   \   000015   E0           MOVX    A,@DPTR
   \   000016   90....       MOV     DPTR,#SampleApp_NwkState
   \   000019   F0           MOVX    @DPTR,A
    313                  if ( //(SampleApp_NwkState == DEV_ZB_COORD)|| //协调器不给自己点播
    314                      (SampleApp_NwkState == DEV_ROUTER)
    315                        || (SampleApp_NwkState == DEV_END_DEVICE) )
   \   00001A   6407         XRL     A,#0x7
   \   00001C   6005         JZ      ??SampleApp_ProcessEvent_3
   \   00001E   E0           MOVX    A,@DPTR
   \   00001F   6406         XRL     A,#0x6
   \   000021   7010         JNZ     ??SampleApp_ProcessEvent_4
    316                  {
    317                    // Start sending the periodic message in a regular interval.
    318                    osal_start_timerEx( SampleApp_TaskID,
    319                                       SAMPLEAPP_SEND_PERIODIC_MSG_EVT,
    320                                       SAMPLEAPP_SEND_PERIODIC_MSG_TIMEOUT );
   \                     ??SampleApp_ProcessEvent_3:
   \   000023                ; Setup parameters for call to function osal_start_timerEx
   \   000023   7C88         MOV     R4,#-0x78
   \   000025   7D13         MOV     R5,#0x13
   \   000027   7A01         MOV     R2,#0x1
   \   000029   7B00         MOV     R3,#0x0
   \   00002B   90....       MOV     DPTR,#SampleApp_TaskID
   \   00002E   E0           MOVX    A,@DPTR
   \   00002F   F9           MOV     R1,A
   \   000030   12....       LCALL   ??osal_start_timerEx?relay
    321                  }
    322                  else
    323                  {
    324                    // Device is no longer in the network
    325                  }
    326                  break;
    327                  
    328                default:
    329                  break;
    330                }
    331                
    332                // Release the memory
    333                osal_msg_deallocate( (uint8 *)MSGpkt );
   \                     ??SampleApp_ProcessEvent_4:
   \   000033                ; Setup parameters for call to function osal_msg_deallocate
   \   000033   AA..         MOV     R2,?V0 + 0
   \   000035   AB..         MOV     R3,?V0 + 1
   \   000037   12....       LCALL   ??osal_msg_deallocate?relay
    334                
    335                // Next - if one is available
    336                MSGpkt = (afIncomingMSGPacket_t *)osal_msg_receive( SampleApp_TaskID );
   \   00003A                ; Setup parameters for call to function osal_msg_receive
   \                     ??SampleApp_ProcessEvent_1:
   \   00003A   90....       MOV     DPTR,#SampleApp_TaskID
   \   00003D   E0           MOVX    A,@DPTR
   \   00003E   F9           MOV     R1,A
   \   00003F   12....       LCALL   ??osal_msg_receive?relay
   \   000042   8A..         MOV     ?V0 + 0,R2
   \   000044   8B..         MOV     ?V0 + 1,R3
   \   000046   E5..         MOV     A,?V0 + 0
   \   000048   45..         ORL     A,?V0 + 1
   \   00004A   6032         JZ      ??SampleApp_ProcessEvent_5
   \   00004C   85..82       MOV     DPL,?V0 + 0
   \   00004F   85..83       MOV     DPH,?V0 + 1
   \   000052   E0           MOVX    A,@DPTR
   \   000053   24E6         ADD     A,#-0x1a
   \   000055   601E         JZ      ??SampleApp_ProcessEvent_6
   \   000057   245A         ADD     A,#0x5a
   \   000059   6006         JZ      ??SampleApp_ProcessEvent_7
   \   00005B   24EF         ADD     A,#-0x11
   \   00005D   60B5         JZ      ??SampleApp_ProcessEvent_2
   \   00005F   80D2         SJMP    ??SampleApp_ProcessEvent_4
   \                     ??SampleApp_ProcessEvent_7:
   \   000061                ; Setup parameters for call to function SampleApp_HandleKeys
   \   000061   A3           INC     DPTR
   \   000062   A3           INC     DPTR
   \   000063   A3           INC     DPTR
   \   000064   E0           MOVX    A,@DPTR
   \   000065   FA           MOV     R2,A
   \   000066   85..82       MOV     DPL,?V0 + 0
   \   000069   85..83       MOV     DPH,?V0 + 1
   \   00006C   A3           INC     DPTR
   \   00006D   A3           INC     DPTR
   \   00006E   E0           MOVX    A,@DPTR
   \   00006F   F9           MOV     R1,A
   \   000070   12....       LCALL   ??SampleApp_HandleKeys?relay
   \   000073   80BE         SJMP    ??SampleApp_ProcessEvent_4
   \                     ??SampleApp_ProcessEvent_6:
   \   000075                ; Setup parameters for call to function SampleApp_MessageMSGCB
   \   000075   AA..         MOV     R2,?V0 + 0
   \   000077   AB..         MOV     R3,?V0 + 1
   \   000079   12....       LCALL   ??SampleApp_MessageMSGCB?relay
   \   00007C   80B5         SJMP    ??SampleApp_ProcessEvent_4
    337              }
    338              
    339              // return unprocessed events
    340              return (events ^ SYS_EVENT_MSG);
   \                     ??SampleApp_ProcessEvent_5:
   \   00007E   EE           MOV     A,R6
   \   00007F   FA           MOV     R2,A
   \   000080   EF           MOV     A,R7
   \   000081   6480         XRL     A,#0x80
   \                     ??SampleApp_ProcessEvent_8:
   \   000083   FB           MOV     R3,A
   \   000084   02....       LJMP    ??SampleApp_ProcessEvent_9 & 0xFFFF
    341            }
    342            
    343            // Send a message out - This event is generated by a timer
    344            //  (setup in SampleApp_Init()).
    345            if ( events & SAMPLEAPP_SEND_PERIODIC_MSG_EVT )
   \                     ??SampleApp_ProcessEvent_0:
   \   000087   EE           MOV     A,R6
   \   000088   A2E0         MOV     C,0xE0 /* A   */.0
   \   00008A   4003         JC      $+5
   \   00008C   02....       LJMP    ??SampleApp_ProcessEvent_10 & 0xFFFF
    346            {
    347              
    348              uint8 T[8];     //温度+提示符     
    349              DHT11();   //温度检测    
   \   00008F                ; Setup parameters for call to function DHT11
   \   00008F   12....       LCALL   ??DHT11?relay
    350              T[0]=wendu_shi+48;
   \   000092   90....       MOV     DPTR,#wendu_shi
   \   000095   E0           MOVX    A,@DPTR
   \   000096   2430         ADD     A,#0x30
   \   000098   85..82       MOV     DPL,?XSP + 0
   \   00009B   85..83       MOV     DPH,?XSP + 1
   \   00009E   F0           MOVX    @DPTR,A
    351              T[1]=wendu_ge+48;
   \   00009F   90....       MOV     DPTR,#wendu_ge
   \   0000A2   E0           MOVX    A,@DPTR
   \   0000A3   2430         ADD     A,#0x30
   \   0000A5   C0E0         PUSH    A
   \   0000A7   7401         MOV     A,#0x1
   \   0000A9   12....       LCALL   ?XSTACK_DISP0_8
   \   0000AC   D0E0         POP     A
   \   0000AE   F0           MOVX    @DPTR,A
    352              T[2]=' ';
   \   0000AF   7402         MOV     A,#0x2
   \   0000B1   12....       LCALL   ?XSTACK_DISP0_8
   \   0000B4   7420         MOV     A,#0x20
   \   0000B6   F0           MOVX    @DPTR,A
    353              T[3]=shidu_shi+48;
   \   0000B7   90....       MOV     DPTR,#shidu_shi
   \   0000BA   E0           MOVX    A,@DPTR
   \   0000BB   2430         ADD     A,#0x30
   \   0000BD   C0E0         PUSH    A
   \   0000BF   7403         MOV     A,#0x3
   \   0000C1   12....       LCALL   ?XSTACK_DISP0_8
   \   0000C4   D0E0         POP     A
   \   0000C6   F0           MOVX    @DPTR,A
    354              T[4]=shidu_ge+48;
   \   0000C7   90....       MOV     DPTR,#shidu_ge
   \   0000CA   E0           MOVX    A,@DPTR
   \   0000CB   2430         ADD     A,#0x30
   \   0000CD   C0E0         PUSH    A
   \   0000CF   7404         MOV     A,#0x4
   \   0000D1   12....       LCALL   ?XSTACK_DISP0_8
   \   0000D4   D0E0         POP     A
   \   0000D6   F0           MOVX    @DPTR,A
    355              T[5]=' ';
   \   0000D7   7405         MOV     A,#0x5
   \   0000D9   12....       LCALL   ?XSTACK_DISP0_8
   \   0000DC   7420         MOV     A,#0x20
   \   0000DE   F0           MOVX    @DPTR,A
    356              T[6]=' ';
   \   0000DF   7406         MOV     A,#0x6
   \   0000E1   12....       LCALL   ?XSTACK_DISP0_8
   \   0000E4   7420         MOV     A,#0x20
   \   0000E6   F0           MOVX    @DPTR,A
    357              T[7]=' ';   
   \   0000E7   7407         MOV     A,#0x7
   \   0000E9   12....       LCALL   ?XSTACK_DISP0_8
   \   0000EC   7420         MOV     A,#0x20
   \   0000EE   F0           MOVX    @DPTR,A
    358              /*******串口打印 WEBEE*********/
    359              HalUARTWrite(0,"temp=",5);
   \   0000EF                ; Setup parameters for call to function HalUARTWrite
   \   0000EF   7C05         MOV     R4,#0x5
   \   0000F1   7D00         MOV     R5,#0x0
   \   0000F3   7A..         MOV     R2,#`?<Constant "temp=">` & 0xff
   \   0000F5   7B..         MOV     R3,#(`?<Constant "temp=">` >> 8) & 0xff
   \   0000F7   12....       LCALL   ?Subroutine6 & 0xFFFF
    360              HalUARTWrite(0,T,2);
   \                     ??CrossCallReturnLabel_8:
   \   0000FA   85..82       MOV     DPL,?XSP + 0
   \   0000FD   85..83       MOV     DPH,?XSP + 1
   \   000100   AA82         MOV     R2,DPL
   \   000102   AB83         MOV     R3,DPH
   \   000104   12....       LCALL   ?Subroutine4 & 0xFFFF
    361              HalUARTWrite(0,"\n",1);    
    362              HalUARTWrite(0,"humidity=",9);
   \                     ??CrossCallReturnLabel_4:
   \   000107                ; Setup parameters for call to function HalUARTWrite
   \   000107   7C09         MOV     R4,#0x9
   \   000109   7D00         MOV     R5,#0x0
   \   00010B   7A..         MOV     R2,#`?<Constant "humidity=">` & 0xff
   \   00010D   7B..         MOV     R3,#(`?<Constant "humidity=">` >> 8) & 0xff
   \   00010F   12....       LCALL   ?Subroutine6 & 0xFFFF
    363              HalUARTWrite(0,T+3,2);
   \                     ??CrossCallReturnLabel_9:
   \   000112   7403         MOV     A,#0x3
   \   000114   12....       LCALL   ?XSTACK_DISP0_8
   \   000117   AA82         MOV     R2,DPL
   \   000119   AB83         MOV     R3,DPH
   \   00011B   12....       LCALL   ?Subroutine5 & 0xFFFF
    364              HalUARTWrite(0,"\n",1);    
    365              /*******LCD显示  WEBEE*********/
    366              HalLcdWriteString("Temp: humidity:", HAL_LCD_LINE_3 );//LCD显示
   \                     ??CrossCallReturnLabel_6:
   \   00011E                ; Setup parameters for call to function HalLcdWriteString
   \   00011E   7903         MOV     R1,#0x3
   \   000120   7A..         MOV     R2,#`?<Constant "Temp: humidity:">` & 0xff
   \   000122   7B..         MOV     R3,#(`?<Constant "Temp: humidity:">` >> 8) & 0xff
   \   000124   12....       LCALL   ??HalLcdWriteString?relay
    367              HalLcdWriteString( T, HAL_LCD_LINE_4 );//LCD显示   
                                        ^
Warning[Pe167]: argument of type "unsigned char *" is incompatible with
          parameter of type "char *"
   \   000127                ; Setup parameters for call to function HalLcdWriteString
   \   000127   7904         MOV     R1,#0x4
   \   000129   85..82       MOV     DPL,?XSP + 0
   \   00012C   85..83       MOV     DPH,?XSP + 1
   \   00012F   AA82         MOV     R2,DPL
   \   000131   AB83         MOV     R3,DPH
   \   000133   12....       LCALL   ??HalLcdWriteString?relay
    368              
    369              SampleApp_SendPointToPointMessage();//点播函数
   \   000136                ; Setup parameters for call to function SampleApp_SendPointToPointMessage
   \   000136   12....       LCALL   ??SampleApp_SendPointToPointMessage?relay
    370              
    371              // Setup to send message again in normal period (+ a little jitter)
    372              osal_start_timerEx( SampleApp_TaskID, SAMPLEAPP_SEND_PERIODIC_MSG_EVT,
    373                                 (SAMPLEAPP_SEND_PERIODIC_MSG_TIMEOUT + (osal_rand() & 0x00FF)) );
   \   000139                ; Setup parameters for call to function osal_rand
   \   000139   12....       LCALL   ??osal_rand?relay
   \   00013C                ; Setup parameters for call to function osal_start_timerEx
   \   00013C   EA           MOV     A,R2
   \   00013D   2488         ADD     A,#-0x78
   \   00013F   FC           MOV     R4,A
   \   000140   E4           CLR     A
   \   000141   3413         ADDC    A,#0x13
   \   000143   FD           MOV     R5,A
   \   000144   7A01         MOV     R2,#0x1
   \   000146   7B00         MOV     R3,#0x0
   \   000148   90....       MOV     DPTR,#SampleApp_TaskID
   \   00014B   E0           MOVX    A,@DPTR
   \   00014C   F9           MOV     R1,A
   \   00014D   12....       LCALL   ??osal_start_timerEx?relay
    374              
    375              // return unprocessed events
    376              return (events ^ SAMPLEAPP_SEND_PERIODIC_MSG_EVT);
   \   000150   EE           MOV     A,R6
   \   000151   6401         XRL     A,#0x1
   \   000153   FA           MOV     R2,A
   \   000154   EF           MOV     A,R7
   \   000155   02....       LJMP    ??SampleApp_ProcessEvent_8 & 0xFFFF
    377            }
    378            
    379            // Discard unknown events
    380            return 0;
   \                     ??SampleApp_ProcessEvent_10:
   \   000158   7A00         MOV     R2,#0x0
   \   00015A   7B00         MOV     R3,#0x0
   \                     ??SampleApp_ProcessEvent_9:
   \   00015C   7408         MOV     A,#0x8
   \   00015E   12....       LCALL   ?DEALLOC_XSTACK8
   \   000161   7F04         MOV     R7,#0x4
   \   000163   02....       LJMP    ?BANKED_LEAVE_XDATA
    381          }

   \                                 In  segment BANKED_CODE, align 1, keep-with-next
   \                     ?Subroutine6:
   \   000000   7900         MOV     R1,#0x0
   \   000002   12....       LCALL   ??HalUARTWrite?relay
   \   000005                ; Setup parameters for call to function HalUARTWrite
   \   000005                ; Setup parameters for call to function HalUARTWrite
   \   000005                ; Setup parameters for call to function HalUARTWrite
   \   000005   7C02         MOV     R4,#0x2
   \   000007   7D00         MOV     R5,#0x0
   \   000009   22           RET

   \                                 In  segment BANKED_CODE, align 1, keep-with-next
   \                     ?Subroutine5:
   \   000000   7900         MOV     R1,#0x0
   \   000002   12....       LCALL   ??HalUARTWrite?relay
   \   000005                ; Setup parameters for call to function HalUARTWrite
   \   000005                ; Setup parameters for call to function HalUARTWrite
   \   000005   7C01         MOV     R4,#0x1
   \   000007   7D00         MOV     R5,#0x0
   \   000009   AA..         MOV     R2,?V0 + 0
   \   00000B   AB..         MOV     R3,?V0 + 1
   \   00000D   7900         MOV     R1,#0x0
   \   00000F   12....       LCALL   ??HalUARTWrite?relay
   \   000012   22           RET

   \                                 In  segment BANKED_CODE, align 1, keep-with-next
   \                     ?Subroutine4:
   \   000000   7900         MOV     R1,#0x0
   \   000002   12....       LCALL   ??HalUARTWrite?relay
   \   000005   75....       MOV     ?V0 + 0,#`?<Constant "\\n">` & 0xff
   \   000008   75....       MOV     ?V0 + 1,#(`?<Constant "\\n">` >> 8) & 0xff
   \   00000B                ; Setup parameters for call to function HalUARTWrite
   \   00000B                ; Setup parameters for call to function HalUARTWrite
   \   00000B   7C01         MOV     R4,#0x1
   \   00000D   7D00         MOV     R5,#0x0
   \   00000F   AA..         MOV     R2,?V0 + 0
   \   000011   AB..         MOV     R3,?V0 + 1
   \   000013   7900         MOV     R1,#0x0
   \   000015   12....       LCALL   ??HalUARTWrite?relay
   \   000018   22           RET
    382          
    383          /*********************************************************************
    384          * Event Generation Functions
    385          */
    386          /*********************************************************************
    387          * @fn      SampleApp_HandleKeys
    388          *
    389          * @brief   Handles all key events for this device.
    390          *
    391          * @param   shift - true if in shift/alt.
    392          * @param   keys - bit field for key events. Valid entries:
    393          *                 HAL_KEY_SW_2
    394          *                 HAL_KEY_SW_1
    395          *
    396          * @return  none
    397          */

   \                                 In  segment BANKED_CODE, align 1, keep-with-next
    398          void SampleApp_HandleKeys( uint8 shift, uint8 keys )
   \                     SampleApp_HandleKeys:
    399          {
   \   000000   74F6         MOV     A,#-0xa
   \   000002   12....       LCALL   ?BANKED_ENTER_XDATA
   \   000005                ; Saved register size: 10
   \   000005                ; Auto size: 0
   \   000005   EA           MOV     A,R2
   \   000006   FE           MOV     R6,A
    400            (void)shift;  // Intentionally unreferenced parameter
    401            
    402            if ( keys & HAL_KEY_SW_1 )
   \   000007   A2E0         MOV     C,0xE0 /* A   */.0
   \   000009   5007         JNC     ??SampleApp_HandleKeys_0
    403            {
    404              /* This key sends the Flash Command is sent to Group 1.
    405              * This device will not receive the Flash Command from this
    406              * device (even if it belongs to group 1).
    407              */
    408              SampleApp_SendFlashMessage( SAMPLEAPP_FLASH_DURATION );
   \   00000B                ; Setup parameters for call to function SampleApp_SendFlashMessage
   \   00000B   7AE8         MOV     R2,#-0x18
   \   00000D   7B03         MOV     R3,#0x3
   \   00000F   12....       LCALL   ??SampleApp_SendFlashMessage?relay
    409            }
    410            
    411            if ( keys & HAL_KEY_SW_2 )
   \                     ??SampleApp_HandleKeys_0:
   \   000012   EE           MOV     A,R6
   \   000013   A2E1         MOV     C,0xE0 /* A   */.1
   \   000015   5024         JNC     ??SampleApp_HandleKeys_1
    412            {
    413              /* The Flashr Command is sent to Group 1.
    414              * This key toggles this device in and out of group 1.
    415              * If this device doesn't belong to group 1, this application
    416              * will not receive the Flash command sent to group 1.
    417              */
    418              aps_Group_t *grp;
    419              grp = aps_FindGroup( SAMPLEAPP_ENDPOINT, SAMPLEAPP_FLASH_GROUP );
    420              if ( grp )
   \   000017                ; Setup parameters for call to function aps_FindGroup
   \   000017   7A01         MOV     R2,#0x1
   \   000019   7B00         MOV     R3,#0x0
   \   00001B   7914         MOV     R1,#0x14
   \   00001D   12....       LCALL   ??aps_FindGroup?relay
   \   000020   8B..         MOV     ?V0 + 1,R3
   \   000022   EA           MOV     A,R2
   \   000023   45..         ORL     A,?V0 + 1
   \   000025   600B         JZ      ??SampleApp_HandleKeys_2
    421              {
    422                // Remove from the group
    423                aps_RemoveGroup( SAMPLEAPP_ENDPOINT, SAMPLEAPP_FLASH_GROUP );
   \   000027                ; Setup parameters for call to function aps_RemoveGroup
   \   000027   7A01         MOV     R2,#0x1
   \   000029   7B00         MOV     R3,#0x0
   \   00002B   7914         MOV     R1,#0x14
   \   00002D   12....       LCALL   ??aps_RemoveGroup?relay
   \   000030   8009         SJMP    ??SampleApp_HandleKeys_1
    424              }
    425              else
    426              {
    427                // Add to the flash group
    428                aps_AddGroup( SAMPLEAPP_ENDPOINT, &SampleApp_Group );
   \                     ??SampleApp_HandleKeys_2:
   \   000032                ; Setup parameters for call to function aps_AddGroup
   \   000032   7A..         MOV     R2,#SampleApp_Group & 0xff
   \   000034   7B..         MOV     R3,#(SampleApp_Group >> 8) & 0xff
   \   000036   7914         MOV     R1,#0x14
   \   000038   12....       LCALL   ??aps_AddGroup?relay
    429              }
    430            }
    431          }
   \                     ??SampleApp_HandleKeys_1:
   \   00003B   02....       LJMP    ??Subroutine7_0 & 0xFFFF
    432          
    433          /*********************************************************************
    434          * LOCAL FUNCTIONS
    435          */
    436          
    437          /*********************************************************************
    438          * @fn      SampleApp_MessageMSGCB
    439          *
    440          * @brief   Data message processor callback.  This function processes
    441          *          any incoming data - probably from other devices.  So, based
    442          *          on cluster ID, perform the intended action.
    443          *
    444          * @param   none
    445          *
    446          * @return  none
    447          */

   \                                 In  segment BANKED_CODE, align 1, keep-with-next
    448          void SampleApp_MessageMSGCB( afIncomingMSGPacket_t *pkt )
   \                     SampleApp_MessageMSGCB:
    449          {
   \   000000   74F6         MOV     A,#-0xa
   \   000002   12....       LCALL   ?BANKED_ENTER_XDATA
   \   000005                ; Saved register size: 10
   \   000005                ; Auto size: 0
   \   000005   EA           MOV     A,R2
   \   000006   FE           MOV     R6,A
   \   000007   EB           MOV     A,R3
   \   000008   FF           MOV     R7,A
    450            uint16 flashTime;
    451            
    452            switch ( pkt->clusterId )
   \   000009   8E82         MOV     DPL,R6
   \   00000B   8F83         MOV     DPH,R7
   \   00000D   A3           INC     DPTR
   \   00000E   A3           INC     DPTR
   \   00000F   A3           INC     DPTR
   \   000010   A3           INC     DPTR
   \   000011   E0           MOVX    A,@DPTR
   \   000012   F5..         MOV     ?V0 + 0,A
   \   000014   A3           INC     DPTR
   \   000015   E0           MOVX    A,@DPTR
   \   000016   F5..         MOV     ?V0 + 1,A
   \   000018   78..         MOV     R0,#?V0 + 0
   \   00001A   12....       LCALL   ?US_SWITCH_DENSE
   \                     `?<Jumptable for SampleApp_MessageMSGCB>_0`:
   \   00001D   0200         DW        2
   \   00001F   01           DB        1
   \   000020   ....         DW        ??SampleApp_MessageMSGCB_0
   \   000022   ....         DW        ??SampleApp_MessageMSGCB_1
   \   000024   ....         DW        ??SampleApp_MessageMSGCB_2
    453            {
    454            case SAMPLEAPP_POINT_TO_POINT_CLUSTERID:
    455              /***********温度打印***************/
    456              HalUARTWrite(0,"Temp is:",8);        //提示接收到数据
   \                     ??SampleApp_MessageMSGCB_2:
   \   000026                ; Setup parameters for call to function HalUARTWrite
   \   000026   7C08         MOV     R4,#0x8
   \   000028   7D00         MOV     R5,#0x0
   \   00002A   7A..         MOV     R2,#`?<Constant "Temp is:">` & 0xff
   \   00002C   7B..         MOV     R3,#(`?<Constant "Temp is:">` >> 8) & 0xff
   \   00002E   7900         MOV     R1,#0x0
   \   000030   12....       LCALL   ??HalUARTWrite?relay
    457              HalUARTWrite(0,&pkt->cmd.Data[0],2); //温度
   \   000033   EE           MOV     A,R6
   \   000034   2422         ADD     A,#0x22
   \   000036   FE           MOV     R6,A
   \   000037   EF           MOV     A,R7
   \   000038   3400         ADDC    A,#0x0
   \   00003A   FF           MOV     R7,A
   \   00003B                ; Setup parameters for call to function HalUARTWrite
   \   00003B   7C02         MOV     R4,#0x2
   \   00003D   7D00         MOV     R5,#0x0
   \   00003F   8E82         MOV     DPL,R6
   \   000041   8F83         MOV     DPH,R7
   \   000043   E0           MOVX    A,@DPTR
   \   000044   FA           MOV     R2,A
   \   000045   A3           INC     DPTR
   \   000046   E0           MOVX    A,@DPTR
   \   000047   FB           MOV     R3,A
   \   000048   12....       LCALL   ?Subroutine4 & 0xFFFF
    458              HalUARTWrite(0,"\n",1);              // 回车换行
    459              
    460              /***************湿度打印****************/
    461              HalUARTWrite(0,"Humidity is:",12);    //提示接收到数据
   \                     ??CrossCallReturnLabel_5:
   \   00004B                ; Setup parameters for call to function HalUARTWrite
   \   00004B   7C0C         MOV     R4,#0xc
   \   00004D   7D00         MOV     R5,#0x0
   \   00004F   7A..         MOV     R2,#`?<Constant "Humidity is:">` & 0xff
   \   000051   7B..         MOV     R3,#(`?<Constant "Humidity is:">` >> 8) & 0xff
   \   000053   12....       LCALL   ?Subroutine6 & 0xFFFF
    462              HalUARTWrite(0,&pkt->cmd.Data[2],2);  //湿度
   \                     ??CrossCallReturnLabel_10:
   \   000056   8E82         MOV     DPL,R6
   \   000058   8F83         MOV     DPH,R7
   \   00005A   E0           MOVX    A,@DPTR
   \   00005B   2402         ADD     A,#0x2
   \   00005D   FA           MOV     R2,A
   \   00005E   A3           INC     DPTR
   \   00005F   E0           MOVX    A,@DPTR
   \   000060   3400         ADDC    A,#0x0
   \   000062   FB           MOV     R3,A
   \   000063   12....       LCALL   ?Subroutine5 & 0xFFFF
    463              HalUARTWrite(0,"\n",1);              // 回车换行
    464              break;
   \                     ??CrossCallReturnLabel_7:
   \   000066   803D         SJMP    ??SampleApp_MessageMSGCB_0
    465              
    466            case SAMPLEAPP_FLASH_CLUSTERID:
    467              flashTime = BUILD_UINT16(pkt->cmd.Data[1], pkt->cmd.Data[2] );
    468              HalLedBlink( HAL_LED_4, 4, 50, (flashTime / 4) );
   \                     ??SampleApp_MessageMSGCB_1:
   \   000068   EE           MOV     A,R6
   \   000069   2422         ADD     A,#0x22
   \   00006B   FE           MOV     R6,A
   \   00006C   EF           MOV     A,R7
   \   00006D   3400         ADDC    A,#0x0
   \   00006F   FF           MOV     R7,A
   \   000070   8E82         MOV     DPL,R6
   \   000072   8F83         MOV     DPH,R7
   \   000074   E0           MOVX    A,@DPTR
   \   000075   F8           MOV     R0,A
   \   000076   A3           INC     DPTR
   \   000077   E0           MOVX    A,@DPTR
   \   000078   F9           MOV     R1,A
   \   000079                ; Setup parameters for call to function HalLedBlink
   \   000079   8882         MOV     DPL,R0
   \   00007B   8983         MOV     DPH,R1
   \   00007D   A3           INC     DPTR
   \   00007E   E0           MOVX    A,@DPTR
   \   00007F   FA           MOV     R2,A
   \   000080   8882         MOV     DPL,R0
   \   000082   8983         MOV     DPH,R1
   \   000084   A3           INC     DPTR
   \   000085   A3           INC     DPTR
   \   000086   E0           MOVX    A,@DPTR
   \   000087   F9           MOV     R1,A
   \   000088   EA           MOV     A,R2
   \   000089   2400         ADD     A,#0x0
   \   00008B   F5..         MOV     ?V0 + 0,A
   \   00008D   E4           CLR     A
   \   00008E   39           ADDC    A,R1
   \   00008F   F5..         MOV     ?V0 + 1,A
   \   000091   7402         MOV     A,#0x2
   \   000093   78..         MOV     R0,#?V0 + 0
   \   000095   12....       LCALL   ?US_SHR
   \   000098   AC..         MOV     R4,?V0 + 0
   \   00009A   AD..         MOV     R5,?V0 + 1
   \   00009C   7B32         MOV     R3,#0x32
   \   00009E   7A04         MOV     R2,#0x4
   \   0000A0   7908         MOV     R1,#0x8
   \   0000A2   12....       LCALL   ??HalLedBlink?relay
    469              break;
    470            }
    471          }
   \                     ??SampleApp_MessageMSGCB_0:
   \   0000A5   02....       LJMP    ??Subroutine7_0 & 0xFFFF
    472          
    473          /*********************************************************************
    474          * @fn      SampleApp_SendPeriodicMessage
    475          *
    476          * @brief   Send the periodic message.
    477          *
    478          * @param   none
    479          *
    480          * @return  none
    481          */

   \                                 In  segment BANKED_CODE, align 1, keep-with-next
   \                     ?Subroutine0:
   \   000000   12....       LCALL   ?DEALLOC_XSTACK8
   \   000003                REQUIRE ??Subroutine7_0
   \   000003                ; // Fall through to label ??Subroutine7_0

   \                                 In  segment BANKED_CODE, align 1, keep-with-next
    482          void SampleApp_SendPeriodicMessage( void )
   \                     SampleApp_SendPeriodicMessage:
    483          {
   \   000000   74F6         MOV     A,#-0xa
   \   000002   12....       LCALL   ?BANKED_ENTER_XDATA
   \   000005                ; Saved register size: 10
   \   000005                ; Auto size: 10
   \   000005   74F6         MOV     A,#-0xa
   \   000007   12....       LCALL   ?ALLOC_XSTACK8
    484            uint8 data[10]={'0','1','2','3','4','5','6','7','8','9'};//自定义数据
   \   00000A   85..82       MOV     DPL,?XSP + 0
   \   00000D   85..83       MOV     DPH,?XSP + 1
   \   000010   AC82         MOV     R4,DPL
   \   000012   AD83         MOV     R5,DPH
   \   000014   7583..       MOV     DPH,#(`?<Constant {48, 49, 50, 51, 52, 53, 54, 55, 56` >> 8) & 0xff
   \   000017   7582..       MOV     DPL,#`?<Constant {48, 49, 50, 51, 52, 53, 54, 55, 56` & 0xff
   \   00001A   740A         MOV     A,#0xa
   \   00001C   12....       LCALL   ?MOVE_LONG8_XDATA_XDATA
    485            if ( AF_DataRequest( &SampleApp_Periodic_DstAddr, &SampleApp_epDesc,
    486                                SAMPLEAPP_PERIODIC_CLUSTERID,
    487                                10,//字节数
    488                                data,//指针头
    489                                &SampleApp_TransID,
    490                                AF_DISCV_ROUTE,
    491                                AF_DEFAULT_RADIUS ) == afStatus_SUCCESS )
   \   00001F                ; Setup parameters for call to function AF_DataRequest
   \   00001F   75..1E       MOV     ?V0 + 0,#0x1e
   \   000022   78..         MOV     R0,#?V0 + 0
   \   000024   12....       LCALL   ?PUSH_XSTACK_I_ONE
   \   000027   75....       MOV     ?V0 + 0,#SampleApp_TransID & 0xff
   \   00002A   75....       MOV     ?V0 + 1,#(SampleApp_TransID >> 8) & 0xff
   \   00002D   78..         MOV     R0,#?V0 + 0
   \   00002F   12....       LCALL   ?PUSH_XSTACK_I_TWO
   \   000032   7403         MOV     A,#0x3
   \   000034   12....       LCALL   ?XSTACK_DISP0_8
   \   000037   8582..       MOV     ?V0 + 0,DPL
   \   00003A   8583..       MOV     ?V0 + 1,DPH
   \   00003D   78..         MOV     R0,#?V0 + 0
   \   00003F   12....       LCALL   ?PUSH_XSTACK_I_TWO
   \   000042   75..0A       MOV     ?V0 + 0,#0xa
   \   000045   75..00       MOV     ?V0 + 1,#0x0
   \   000048   78..         MOV     R0,#?V0 + 0
   \   00004A   12....       LCALL   ?PUSH_XSTACK_I_TWO
   \   00004D   75..01       MOV     ?V0 + 0,#0x1
   \   000050   78..         MOV     R0,#?V0 + 0
   \   000052   12....       LCALL   ?PUSH_XSTACK_I_TWO
   \   000055   7920         MOV     R1,#0x20
   \   000057   7C..         MOV     R4,#SampleApp_epDesc & 0xff
   \   000059   7D..         MOV     R5,#(SampleApp_epDesc >> 8) & 0xff
   \   00005B   7A..         MOV     R2,#SampleApp_Periodic_DstAddr & 0xff
   \   00005D   7B..         MOV     R3,#(SampleApp_Periodic_DstAddr >> 8) & 0xff
   \   00005F   12....       LCALL   ??AF_DataRequest?relay
   \   000062   7409         MOV     A,#0x9
   \   000064   12....       LCALL   ?DEALLOC_XSTACK8
    492            {
    493            }
    494            else
    495            {
    496              // Error occurred in request to send.
    497            }
    498          }
   \   000067   740A         MOV     A,#0xa
   \   000069   02....       LJMP    ?Subroutine0 & 0xFFFF
    499          
    500          /*********************************************************************
    501          * @fn      SampleApp_SendFlashMessage
    502          *
    503          * @brief   Send the flash message to group 1.
    504          *
    505          * @param   flashTime - in milliseconds
    506          *
    507          * @return  none
    508          */

   \                                 In  segment BANKED_CODE, align 1, keep-with-next
    509          void SampleApp_SendFlashMessage( uint16 flashTime )
   \                     SampleApp_SendFlashMessage:
    510          {
   \   000000   74F6         MOV     A,#-0xa
   \   000002   12....       LCALL   ?BANKED_ENTER_XDATA
   \   000005                ; Saved register size: 10
   \   000005                ; Auto size: 3
   \   000005   74FD         MOV     A,#-0x3
   \   000007   12....       LCALL   ?ALLOC_XSTACK8
    511            uint8 buffer[3];
    512            buffer[0] = (uint8)(SampleAppFlashCounter++);
   \   00000A   90....       MOV     DPTR,#SampleAppFlashCounter
   \   00000D   E0           MOVX    A,@DPTR
   \   00000E   85..82       MOV     DPL,?XSP + 0
   \   000011   85..83       MOV     DPH,?XSP + 1
   \   000014   F0           MOVX    @DPTR,A
   \   000015   90....       MOV     DPTR,#SampleAppFlashCounter
   \   000018   E0           MOVX    A,@DPTR
   \   000019   04           INC     A
   \   00001A   F0           MOVX    @DPTR,A
    513            buffer[1] = LO_UINT16( flashTime );
   \   00001B   7401         MOV     A,#0x1
   \   00001D   12....       LCALL   ?XSTACK_DISP0_8
   \   000020   EA           MOV     A,R2
   \   000021   F0           MOVX    @DPTR,A
    514            buffer[2] = HI_UINT16( flashTime );
   \   000022   7402         MOV     A,#0x2
   \   000024   12....       LCALL   ?XSTACK_DISP0_8
   \   000027   EB           MOV     A,R3
   \   000028   F0           MOVX    @DPTR,A
    515            
    516            if ( AF_DataRequest( &SampleApp_Flash_DstAddr, &SampleApp_epDesc,
    517                                SAMPLEAPP_FLASH_CLUSTERID,
    518                                3,
    519                                buffer,
    520                                &SampleApp_TransID,
    521                                AF_DISCV_ROUTE,
    522                                AF_DEFAULT_RADIUS ) == afStatus_SUCCESS )
   \   000029                ; Setup parameters for call to function AF_DataRequest
   \   000029   75..1E       MOV     ?V0 + 0,#0x1e
   \   00002C   78..         MOV     R0,#?V0 + 0
   \   00002E   12....       LCALL   ?PUSH_XSTACK_I_ONE
   \   000031   75....       MOV     ?V0 + 0,#SampleApp_TransID & 0xff
   \   000034   75....       MOV     ?V0 + 1,#(SampleApp_TransID >> 8) & 0xff
   \   000037   78..         MOV     R0,#?V0 + 0
   \   000039   12....       LCALL   ?PUSH_XSTACK_I_TWO
   \   00003C   7403         MOV     A,#0x3
   \   00003E   12....       LCALL   ?XSTACK_DISP0_8
   \   000041   8582..       MOV     ?V0 + 0,DPL
   \   000044   8583..       MOV     ?V0 + 1,DPH
   \   000047   78..         MOV     R0,#?V0 + 0
   \   000049   12....       LCALL   ?PUSH_XSTACK_I_TWO
   \   00004C   75..03       MOV     ?V0 + 0,#0x3
   \   00004F   75..00       MOV     ?V0 + 1,#0x0
   \   000052   78..         MOV     R0,#?V0 + 0
   \   000054   12....       LCALL   ?PUSH_XSTACK_I_TWO
   \   000057   75..02       MOV     ?V0 + 0,#0x2
   \   00005A   78..         MOV     R0,#?V0 + 0
   \   00005C   12....       LCALL   ?PUSH_XSTACK_I_TWO
   \   00005F   7920         MOV     R1,#0x20
   \   000061   7C..         MOV     R4,#SampleApp_epDesc & 0xff
   \   000063   7D..         MOV     R5,#(SampleApp_epDesc >> 8) & 0xff
   \   000065   7A..         MOV     R2,#SampleApp_Flash_DstAddr & 0xff
   \   000067   7B..         MOV     R3,#(SampleApp_Flash_DstAddr >> 8) & 0xff
   \   000069   12....       LCALL   ??AF_DataRequest?relay
   \   00006C   7409         MOV     A,#0x9
   \   00006E   12....       LCALL   ?DEALLOC_XSTACK8
    523            {
    524            }
    525            else
    526            {
    527              // Error occurred in request to send.
    528            }
    529          }
   \   000071   7403         MOV     A,#0x3
   \   000073   02....       LJMP    ?Subroutine0 & 0xFFFF
    530          
    531          /*********************************************************************
    532          *********************************************************************/

   \                                 In  segment BANKED_CODE, align 1, keep-with-next
    533          void SampleApp_SendPointToPointMessage( void )
   \                     SampleApp_SendPointToPointMessage:
    534          {
   \   000000   74F5         MOV     A,#-0xb
   \   000002   12....       LCALL   ?BANKED_ENTER_XDATA
   \   000005                ; Saved register size: 11
   \   000005                ; Auto size: 22
   \   000005   74EA         MOV     A,#-0x16
   \   000007   12....       LCALL   ?ALLOC_XSTACK8
    535            RFTX rftx;
    536            uint16 nwk;
    537            
    538            /*uint8 T_H[4];//温湿度
    539            T_H[0]=wendu_shi+48;
    540            T_H[1]=wendu_ge%10+48;
    541            
    542            T_H[2]=shidu_shi+48;
    543            T_H[3]=shidu_ge%10+48;*/
    544            
    545            rftx.BUF.value[0] = 'D';
   \   00000A   740F         MOV     A,#0xf
   \   00000C   12....       LCALL   ?XSTACK_DISP0_8
   \   00000F   7444         MOV     A,#0x44
   \   000011   F0           MOVX    @DPTR,A
    546            rftx.BUF.value[1] = wendu_shi+48;
   \   000012   90....       MOV     DPTR,#wendu_shi
   \   000015   E0           MOVX    A,@DPTR
   \   000016   2430         ADD     A,#0x30
   \   000018   C0E0         PUSH    A
   \   00001A   7410         MOV     A,#0x10
   \   00001C   12....       LCALL   ?XSTACK_DISP0_8
   \   00001F   D0E0         POP     A
   \   000021   F0           MOVX    @DPTR,A
    547            rftx.BUF.value[2] = wendu_ge%10+48;
   \   000022   90....       MOV     DPTR,#wendu_ge
   \   000025   12....       LCALL   ?Subroutine3 & 0xFFFF
   \                     ??CrossCallReturnLabel_2:
   \   000028   C0E0         PUSH    A
   \   00002A   7411         MOV     A,#0x11
   \   00002C   12....       LCALL   ?XSTACK_DISP0_8
   \   00002F   D0E0         POP     A
   \   000031   F0           MOVX    @DPTR,A
    548            
    549            rftx.BUF.value[3] = shidu_shi+48;
   \   000032   90....       MOV     DPTR,#shidu_shi
   \   000035   E0           MOVX    A,@DPTR
   \   000036   2430         ADD     A,#0x30
   \   000038   C0E0         PUSH    A
   \   00003A   7412         MOV     A,#0x12
   \   00003C   12....       LCALL   ?XSTACK_DISP0_8
   \   00003F   D0E0         POP     A
   \   000041   F0           MOVX    @DPTR,A
    550            rftx.BUF.value[4] = shidu_ge%10+48;
   \   000042   90....       MOV     DPTR,#shidu_ge
   \   000045   12....       LCALL   ?Subroutine3 & 0xFFFF
   \                     ??CrossCallReturnLabel_3:
   \   000048   C0E0         PUSH    A
   \   00004A   7413         MOV     A,#0x13
   \   00004C   12....       LCALL   ?XSTACK_DISP0_8
   \   00004F   D0E0         POP     A
   \   000051   F0           MOVX    @DPTR,A
    551            
    552            rftx.BUF.value[5] = '*';
   \   000052   7414         MOV     A,#0x14
   \   000054   12....       LCALL   ?XSTACK_DISP0_8
   \   000057   742A         MOV     A,#0x2a
   \   000059   F0           MOVX    @DPTR,A
    553            
    554            osal_memcpy(rftx.BUF.head,"&&",2);
   \   00005A                ; Setup parameters for call to function osal_memcpy
   \   00005A   75....       MOV     ?V0 + 0,#`?<Constant "&&">` & 0xff
   \   00005D   75....       MOV     ?V0 + 1,#(`?<Constant "&&">` >> 8) & 0xff
   \   000060   75..00       MOV     ?V0 + 2,#0x0
   \   000063   78..         MOV     R0,#?V0 + 0
   \   000065   12....       LCALL   ?PUSH_XSTACK_I_THREE
   \   000068   7C02         MOV     R4,#0x2
   \   00006A   7D00         MOV     R5,#0x0
   \   00006C   7405         MOV     A,#0x5
   \   00006E   12....       LCALL   ?XSTACK_DISP0_8
   \   000071   AA82         MOV     R2,DPL
   \   000073   AB83         MOV     R3,DPH
   \   000075   12....       LCALL   ??osal_memcpy?relay
   \   000078   7403         MOV     A,#0x3
   \   00007A   12....       LCALL   ?DEALLOC_XSTACK8
    555            osal_memcpy(rftx.BUF.type,"END",3);
   \   00007D                ; Setup parameters for call to function osal_memcpy
   \   00007D   75....       MOV     ?V0 + 0,#`?<Constant "END">` & 0xff
   \   000080   75....       MOV     ?V0 + 1,#(`?<Constant "END">` >> 8) & 0xff
   \   000083   78..         MOV     R0,#?V0 + 0
   \   000085   12....       LCALL   ?PUSH_XSTACK_I_THREE
   \   000088   7C03         MOV     R4,#0x3
   \   00008A   7D00         MOV     R5,#0x0
   \   00008C   7407         MOV     A,#0x7
   \   00008E   12....       LCALL   ?XSTACK_DISP0_8
   \   000091   AA82         MOV     R2,DPL
   \   000093   AB83         MOV     R3,DPH
   \   000095   12....       LCALL   ??osal_memcpy?relay
   \   000098   7403         MOV     A,#0x3
   \   00009A   12....       LCALL   ?DEALLOC_XSTACK8
    556            
    557            nwk = NLME_GetShortAddr();
   \   00009D                ; Setup parameters for call to function NLME_GetShortAddr
   \   00009D   12....       LCALL   ??NLME_GetShortAddr?relay
   \   0000A0   12....       LCALL   ?Subroutine2 & 0xFFFF
    558            
    559            To_string(rftx.BUF.myNWK,(uint8 *)&nwk,2);
                                            ^
Warning[Pe167]: argument of type "unsigned char *" is incompatible with
          parameter of type "char *"
   \                     ??CrossCallReturnLabel_0:
   \   0000A3   7407         MOV     A,#0x7
   \   0000A5   12....       LCALL   ?XSTACK_DISP0_8
   \   0000A8   AA82         MOV     R2,DPL
   \   0000AA   AB83         MOV     R3,DPH
   \   0000AC   12....       LCALL   ??To_string?relay
    560            
    561            nwk = NLME_GetCoordShortAddr();
   \   0000AF                ; Setup parameters for call to function NLME_GetCoordShortAddr
   \   0000AF   12....       LCALL   ??NLME_GetCoordShortAddr?relay
   \   0000B2   12....       LCALL   ?Subroutine2 & 0xFFFF
    562            
    563            To_string(rftx.BUF.pNWK,(uint8 *)&nwk,2);
                                           ^
Warning[Pe167]: argument of type "unsigned char *" is incompatible with
          parameter of type "char *"
   \                     ??CrossCallReturnLabel_1:
   \   0000B5   740B         MOV     A,#0xb
   \   0000B7   12....       LCALL   ?XSTACK_DISP0_8
   \   0000BA   AA82         MOV     R2,DPL
   \   0000BC   AB83         MOV     R3,DPH
   \   0000BE   12....       LCALL   ??To_string?relay
    564            
    565            rftx.BUF.tail = '*';
   \   0000C1   7415         MOV     A,#0x15
   \   0000C3   12....       LCALL   ?XSTACK_DISP0_8
   \   0000C6   742A         MOV     A,#0x2a
   \   0000C8   F0           MOVX    @DPTR,A
    566            
    567            if ( AF_DataRequest( &Point_To_Point_DstAddr,
    568                                &SampleApp_epDesc,
    569                                SAMPLEAPP_POINT_TO_POINT_CLUSTERID_DHT11,
    570                                20,
    571                                (uint8 *)&rftx,
    572                                &SampleApp_TransID,
    573                                AF_DISCV_ROUTE,
    574                                AF_DEFAULT_RADIUS ) == afStatus_SUCCESS )
   \   0000C9                ; Setup parameters for call to function AF_DataRequest
   \   0000C9   75..1E       MOV     ?V0 + 0,#0x1e
   \   0000CC   78..         MOV     R0,#?V0 + 0
   \   0000CE   12....       LCALL   ?PUSH_XSTACK_I_ONE
   \   0000D1   75....       MOV     ?V0 + 0,#SampleApp_TransID & 0xff
   \   0000D4   75....       MOV     ?V0 + 1,#(SampleApp_TransID >> 8) & 0xff
   \   0000D7   78..         MOV     R0,#?V0 + 0
   \   0000D9   12....       LCALL   ?PUSH_XSTACK_I_TWO
   \   0000DC   7405         MOV     A,#0x5
   \   0000DE   12....       LCALL   ?XSTACK_DISP0_8
   \   0000E1   8582..       MOV     ?V0 + 0,DPL
   \   0000E4   8583..       MOV     ?V0 + 1,DPH
   \   0000E7   78..         MOV     R0,#?V0 + 0
   \   0000E9   12....       LCALL   ?PUSH_XSTACK_I_TWO
   \   0000EC   75..14       MOV     ?V0 + 0,#0x14
   \   0000EF   75..00       MOV     ?V0 + 1,#0x0
   \   0000F2   78..         MOV     R0,#?V0 + 0
   \   0000F4   12....       LCALL   ?PUSH_XSTACK_I_TWO
   \   0000F7   75..04       MOV     ?V0 + 0,#0x4
   \   0000FA   78..         MOV     R0,#?V0 + 0
   \   0000FC   12....       LCALL   ?PUSH_XSTACK_I_TWO
   \   0000FF   7920         MOV     R1,#0x20
   \   000101   7C..         MOV     R4,#SampleApp_epDesc & 0xff
   \   000103   7D..         MOV     R5,#(SampleApp_epDesc >> 8) & 0xff
   \   000105   7A..         MOV     R2,#Point_To_Point_DstAddr & 0xff
   \   000107   7B..         MOV     R3,#(Point_To_Point_DstAddr >> 8) & 0xff
   \   000109   12....       LCALL   ??AF_DataRequest?relay
   \   00010C   7409         MOV     A,#0x9
   \   00010E   12....       LCALL   ?DEALLOC_XSTACK8
    575            {
    576            }
    577            else
    578            {
    579              // Error occurred in request to send.
    580            }
    581            
    582            
    583          }
   \   000111   7416         MOV     A,#0x16
   \   000113   12....       LCALL   ?DEALLOC_XSTACK8
   \   000116   02....       LJMP    ?Subroutine1 & 0xFFFF

   \                                 In  segment BANKED_CODE, align 1, keep-with-next
   \                     ?Subroutine3:
   \   000000   E0           MOVX    A,@DPTR
   \   000001   75F00A       MOV     B,#0xa
   \   000004   84           DIV     AB
   \   000005   E5F0         MOV     A,B
   \   000007   2430         ADD     A,#0x30
   \   000009   22           RET

   \                                 In  segment BANKED_CODE, align 1, keep-with-next
   \                     ?Subroutine2:
   \   000000   85..82       MOV     DPL,?XSP + 0
   \   000003   85..83       MOV     DPH,?XSP + 1
   \   000006   EA           MOV     A,R2
   \   000007   F0           MOVX    @DPTR,A
   \   000008   A3           INC     DPTR
   \   000009   EB           MOV     A,R3
   \   00000A   F0           MOVX    @DPTR,A
   \   00000B                ; Setup parameters for call to function To_string
   \   00000B                ; Setup parameters for call to function To_string
   \   00000B   7902         MOV     R1,#0x2
   \   00000D   85..82       MOV     DPL,?XSP + 0
   \   000010   85..83       MOV     DPH,?XSP + 1
   \   000013   AC82         MOV     R4,DPL
   \   000015   AD83         MOV     R5,DPH
   \   000017   22           RET

   \                                 In  segment BANK_RELAYS, align 1
   \                     ??To_string?relay:
   \   000000   12....       LCALL   ?BDISPATCH
   \   000003   ......       DC24    To_string

   \                                 In  segment BANK_RELAYS, align 1
   \                     ??SampleApp_Init?relay:
   \   000000   12....       LCALL   ?BDISPATCH
   \   000003   ......       DC24    SampleApp_Init

   \                                 In  segment BANK_RELAYS, align 1
   \                     ??SampleApp_ProcessEvent?relay:
   \   000000   12....       LCALL   ?BDISPATCH
   \   000003   ......       DC24    SampleApp_ProcessEvent

   \                                 In  segment BANK_RELAYS, align 1
   \                     ??SampleApp_HandleKeys?relay:
   \   000000   12....       LCALL   ?BDISPATCH
   \   000003   ......       DC24    SampleApp_HandleKeys

   \                                 In  segment BANK_RELAYS, align 1
   \                     ??SampleApp_MessageMSGCB?relay:
   \   000000   12....       LCALL   ?BDISPATCH
   \   000003   ......       DC24    SampleApp_MessageMSGCB

   \                                 In  segment BANK_RELAYS, align 1
   \                     ??SampleApp_SendPeriodicMessage?relay:
   \   000000   12....       LCALL   ?BDISPATCH
   \   000003   ......       DC24    SampleApp_SendPeriodicMessage

   \                                 In  segment BANK_RELAYS, align 1
   \                     ??SampleApp_SendFlashMessage?relay:
   \   000000   12....       LCALL   ?BDISPATCH
   \   000003   ......       DC24    SampleApp_SendFlashMessage

   \                                 In  segment BANK_RELAYS, align 1
   \                     ??SampleApp_SendPointToPointMessage?relay:
   \   000000   12....       LCALL   ?BDISPATCH
   \   000003   ......       DC24    SampleApp_SendPointToPointMessage

   \                                 In  segment XDATA_ROM_C, align 1
   \                     `?<Constant "Hello World\\n">`:
   \   000000   48656C6C     DB "Hello World\012"
   \            6F20576F
   \            726C640A
   \            00      

   \                                 In  segment XDATA_ROM_C, align 1
   \                     `?<Constant "Group 1">`:
   \   000000   47726F75     DB "Group 1"
   \            70203100

   \                                 In  segment XDATA_ROM_C, align 1
   \                     `?<Constant "SampleApp">`:
   \   000000   53616D70     DB "SampleApp"
   \            6C654170
   \            7000    

   \                                 In  segment XDATA_ROM_C, align 1
   \                     `?<Constant "temp=">`:
   \   000000   74656D70     DB "temp="
   \            3D00    

   \                                 In  segment XDATA_ROM_C, align 1
   \                     `?<Constant "\\n">`:
   \   000000   0A00         DB "\012"

   \                                 In  segment XDATA_ROM_C, align 1
   \                     `?<Constant "humidity=">`:
   \   000000   68756D69     DB "humidity="
   \            64697479
   \            3D00    

   \                                 In  segment XDATA_ROM_C, align 1
   \                     `?<Constant "Temp: humidity:">`:
   \   000000   54656D70     DB "Temp: humidity:"
   \            3A206875
   \            6D696469
   \            74793A00

   \                                 In  segment XDATA_ROM_C, align 1
   \                     `?<Constant "Temp is:">`:
   \   000000   54656D70     DB "Temp is:"
   \            2069733A
   \            00      

   \                                 In  segment XDATA_ROM_C, align 1
   \                     `?<Constant "Humidity is:">`:
   \   000000   48756D69     DB "Humidity is:"
   \            64697479
   \            2069733A
   \            00      

   \                                 In  segment XDATA_ROM_C, align 1
   \                     `?<Constant {48, 49, 50, 51, 52, 53, 54, 55, 56`:
   \   000000   30           DB 48
   \   000001   31           DB 49
   \   000002   32           DB 50
   \   000003   33           DB 51
   \   000004   34           DB 52
   \   000005   35           DB 53
   \   000006   36           DB 54
   \   000007   37           DB 55
   \   000008   38           DB 56
   \   000009   39           DB 57

   \                                 In  segment XDATA_ROM_C, align 1
   \                     `?<Constant "&&">`:
   \   000000   262600       DB "&&"

   \                                 In  segment XDATA_ROM_C, align 1
   \                     `?<Constant "END">`:
   \   000000   454E4400     DB "END"

   Maximum stack usage in bytes:

     Function                       ISTACK PSTACK XSTACK
     --------                       ------ ------ ------
     SampleApp_HandleKeys               0      0     30
       -> SampleApp_SendFlashMessage
                                        0      0     20
       -> aps_FindGroup                 0      0     20
       -> aps_RemoveGroup               0      0     20
       -> aps_AddGroup                  0      0     20
     SampleApp_Init                     0      0     14
       -> MT_UartInit                   0      0     22
       -> MT_UartRegisterTaskID         0      0     22
       -> HalUARTWrite                  0      0     22
       -> afRegister                    0      0     22
       -> RegisterForKeys               0      0     22
       -> osal_memcpy                   0      0     28
       -> aps_AddGroup                  0      0     22
       -> HalLcdWriteString             0      0     22
     SampleApp_MessageMSGCB             0      0     30
       -> HalUARTWrite                  0      0     20
       -> HalUARTWrite                  0      0     20
       -> HalUARTWrite                  0      0     20
       -> HalUARTWrite                  0      0     20
       -> HalUARTWrite                  0      0     20
       -> HalUARTWrite                  0      0     20
       -> HalLedBlink                   0      0     20
     SampleApp_ProcessEvent             1      0     20
       -> osal_msg_receive              0      0     40
       -> osal_start_timerEx            0      0     40
       -> osal_msg_deallocate           0      0     40
       -> osal_msg_receive              0      0     40
       -> SampleApp_HandleKeys          0      0     40
       -> SampleApp_MessageMSGCB        0      0     40
       -> DHT11                         0      0     40
       -> HalUARTWrite                  0      0     40
       -> HalUARTWrite                  0      0     40
       -> HalUARTWrite                  0      0     40
       -> HalUARTWrite                  0      0     40
       -> HalUARTWrite                  0      0     40
       -> HalUARTWrite                  0      0     40
       -> HalLcdWriteString             0      0     40
       -> HalLcdWriteString             0      0     40
       -> SampleApp_SendPointToPointMessage
                                        0      0     40
       -> osal_rand                     0      0     40
       -> osal_start_timerEx            0      0     40
     SampleApp_SendFlashMessage         1      0     32
       -> AF_DataRequest                0      0     44
     SampleApp_SendPeriodicMessage      2      0     29
       -> AF_DataRequest                0      0     58
     SampleApp_SendPointToPointMessage
                                        1      0     62
       -> osal_memcpy                   0      0     72
       -> osal_memcpy                   0      0     72
       -> NLME_GetShortAddr             0      0     66
       -> To_string                     0      0     66
       -> NLME_GetCoordShortAddr        0      0     66
       -> To_string                     0      0     66
       -> AF_DataRequest                0      0     84
     To_string                          1      0     43


   Segment part sizes:

     Function/Label                                 Bytes
     --------------                                 -----
     P0SEL                                             1
     SampleApp_ClusterList                            10
     SampleApp_SimpleDesc                             12
     SampleApp_epDesc                                  6
     SampleApp_TaskID                                  1
     SampleApp_NwkState                                1
     SampleApp_TransID                                 1
     SampleApp_Periodic_DstAddr                       12
     SampleApp_Flash_DstAddr                          12
     Point_To_Point_DstAddr                           12
     SampleApp_Group                                  18
     SampleAppPeriodicCounter                          1
     SampleAppFlashCounter                             1
     To_string                                       130
     ??Subroutine7_0                                   5
     SampleApp_Init                                  196
     ?Subroutine1                                      5
     SampleApp_ProcessEvent                          358
     ?Subroutine6                                     10
     ?Subroutine5                                     19
     ?Subroutine4                                     25
     SampleApp_HandleKeys                             62
     SampleApp_MessageMSGCB                          168
     ?Subroutine0                                      3
     SampleApp_SendPeriodicMessage                   108
     SampleApp_SendFlashMessage                      118
     SampleApp_SendPointToPointMessage
                                                     281
     ?Subroutine3                                     10
     ?Subroutine2                                     24
     ??To_string?relay                                 6
     ??SampleApp_Init?relay                            6
     ??SampleApp_ProcessEvent?relay                    6
     ??SampleApp_HandleKeys?relay                      6
     ??SampleApp_MessageMSGCB?relay                    6
     ??SampleApp_SendPeriodicMessage?relay             6
     ??SampleApp_SendFlashMessage?relay                6
     ??SampleApp_SendPointToPointMessage?relay         6
     ?<Constant "Hello World\n">                      13
     ?<Constant "Group 1">                             8
     ?<Constant "SampleApp">                          10
     ?<Constant "temp=">                               6
     ?<Constant "\n">                                  2
     ?<Constant "humidity=">                          10
     ?<Constant "Temp: humidity:">                    16
     ?<Constant "Temp is:">                            9
     ?<Constant "Humidity is:">                       13
     ?<Constant {48, 49, 50, 51, 52, 53, 54, 55, 56   10
     ?<Constant "&&">                                  3
     ?<Constant "END">                                 4

 
 1 522 bytes in segment BANKED_CODE
    48 bytes in segment BANK_RELAYS
     1 byte  in segment SFR_AN
   126 bytes in segment XDATA_ROM_C
    65 bytes in segment XDATA_Z
 
 1 570 bytes of CODE  memory
   126 bytes of CONST memory
     0 bytes of DATA  memory (+ 1 byte shared)
    65 bytes of XDATA memory

Errors: none
Warnings: 4
