###############################################################################
#                                                                             #
# IAR C/C++ Compiler V8.10.1.10194/W32 for 8051         14/May/2016  22:30:07 #
# Copyright 2004-2011 IAR Systems AB.                                         #
#                                                                             #
#    Core               =  plain                                              #
#    Code model         =  banked                                             #
#    Data model         =  large                                              #
#    Calling convention =  xdata reentrant                                    #
#    Constant location  =  data_rom                                           #
#    Dptr setup         =  1,16                                               #
#    Source file        =  G:\IAR projects\Coordinator\Projects\zstack\Sample #
#                          s\SampleApp\Source\SampleApp.c                     #
#    Command line       =  -f "G:\IAR projects\Coordinator\Projects\zstack\Sa #
#                          mples\SampleApp\CC2530DB\..\..\..\Tools\CC2530DB\f #
#                          8wCoord.cfg" (-DCPU32MHZ -DROOT=__near_func        #
#                          -DMAC_CFG_APP_PENDING_QUEUE=TRUE                   #
#                          -DMAC_CFG_TX_DATA_MAX=5 -DMAC_CFG_TX_MAX=8         #
#                          -DMAC_CFG_RX_MAX=5 -DZDO_COORDINATOR -DRTR_NWK)    #
#                          -f "G:\IAR projects\Coordinator\Projects\zstack\Sa #
#                          mples\SampleApp\CC2530DB\..\..\..\Tools\CC2530DB\f #
#                          8wConfig.cfg" (-DZIGBEEPRO -DSECURE=0              #
#                          -DZG_SECURE_DYNAMIC=0 -DREFLECTOR                  #
#                          -DDEFAULT_CHANLIST=0x00000800                      #
#                          -DZDAPP_CONFIG_PAN_ID=0xFF00                       #
#                          -DNWK_START_DELAY=100 -DEXTENDED_JOINING_RANDOM_MA #
#                          SK=0x007F -DBEACON_REQUEST_DELAY=100               #
#                          -DBEACON_REQ_DELAY_MASK=0x00FF                     #
#                          -DLINK_STATUS_JITTER_MASK=0x007F                   #
#                          -DROUTE_EXPIRY_TIME=30 -DAPSC_ACK_WAIT_DURATION_PO #
#                          LLED=3000 -DNWK_INDIRECT_MSG_TIMEOUT=7             #
#                          -DMAX_RREQ_ENTRIES=8 -DAPSC_MAX_FRAME_RETRIES=3    #
#                          -DNWK_MAX_DATA_RETRIES=2                           #
#                          -DMAX_POLL_FAILURE_RETRIES=2 -DMAX_BCAST=9         #
#                          -DAPS_MAX_GROUPS=16 -DMAX_RTG_ENTRIES=40           #
#                          -DNWK_MAX_BINDING_ENTRIES=4                        #
#                          -DMAX_BINDING_CLUSTER_IDS=4 "-DDEFAULT_KEY={0x01,  #
#                          0x03, 0x05, 0x07, 0x09, 0x0B, 0x0D, 0x0F, 0x00,    #
#                          0x02, 0x04, 0x06, 0x08, 0x0A, 0x0C, 0x0D}"         #
#                          -DMAC_MAX_FRAME_SIZE=116                           #
#                          -DZDNWKMGR_MIN_TRANSMISSIONS=20 "-DCONST=const     #
#                          __code" -DGENERIC=__generic                        #
#                          -DRFD_RCVC_ALWAYS_ON=FALSE -DPOLL_RATE=1000        #
#                          -DQUEUED_POLL_RATE=100 -DRESPONSE_POLL_RATE=100)   #
#                          -DREJOIN_POLL_RATE=440 "G:\IAR                     #
#                          projects\Coordinator\Projects\zstack\Samples\Sampl #
#                          eApp\Source\SampleApp.c" -D ZTOOL_P1 -D xMT_TASK   #
#                          -D xMT_SYS_FUNC -D xMT_ZDO_FUNC -D                 #
#                          LCD_SUPPORTED=DEBUG -lC "G:\IAR                    #
#                          projects\Coordinator\Projects\zstack\Samples\Sampl #
#                          eApp\CC2530DB\CoordinatorEB\List\" -lA "G:\IAR     #
#                          projects\Coordinator\Projects\zstack\Samples\Sampl #
#                          eApp\CC2530DB\CoordinatorEB\List\"                 #
#                          --diag_suppress Pe001,Pa010 -o "G:\IAR             #
#                          projects\Coordinator\Projects\zstack\Samples\Sampl #
#                          eApp\CC2530DB\CoordinatorEB\Obj\" -e               #
#                          --no_code_motion --debug --core=plain --dptr=16,1  #
#                          --data_model=large --code_model=banked             #
#                          --calling_convention=xdata_reentrant               #
#                          --place_constants=data_rom --nr_virtual_regs 16    #
#                          -I "G:\IAR projects\Coordinator\Projects\zstack\Sa #
#                          mples\SampleApp\CC2530DB\" -I "G:\IAR              #
#                          projects\Coordinator\Projects\zstack\Samples\Sampl #
#                          eApp\CC2530DB\..\Source\" -I "G:\IAR               #
#                          projects\Coordinator\Projects\zstack\Samples\Sampl #
#                          eApp\CC2530DB\..\..\..\ZMain\TI2530DB\" -I         #
#                          "G:\IAR projects\Coordinator\Projects\zstack\Sampl #
#                          es\SampleApp\CC2530DB\..\..\..\..\..\Components\ha #
#                          l\include\" -I "G:\IAR projects\Coordinator\Projec #
#                          ts\zstack\Samples\SampleApp\CC2530DB\..\..\..\..\. #
#                          .\Components\hal\target\CC2530EB\" -I "G:\IAR      #
#                          projects\Coordinator\Projects\zstack\Samples\Sampl #
#                          eApp\CC2530DB\..\..\..\..\..\Components\mac\includ #
#                          e\" -I "G:\IAR projects\Coordinator\Projects\zstac #
#                          k\Samples\SampleApp\CC2530DB\..\..\..\..\..\Compon #
#                          ents\mac\high_level\" -I "G:\IAR                   #
#                          projects\Coordinator\Projects\zstack\Samples\Sampl #
#                          eApp\CC2530DB\..\..\..\..\..\Components\mac\low_le #
#                          vel\srf04\" -I "G:\IAR projects\Coordinator\Projec #
#                          ts\zstack\Samples\SampleApp\CC2530DB\..\..\..\..\. #
#                          .\Components\mac\low_level\srf04\single_chip\" -I  #
#                          "G:\IAR projects\Coordinator\Projects\zstack\Sampl #
#                          es\SampleApp\CC2530DB\..\..\..\..\..\Components\mt #
#                          \" -I "G:\IAR projects\Coordinator\Projects\zstack #
#                          \Samples\SampleApp\CC2530DB\..\..\..\..\..\Compone #
#                          nts\osal\include\" -I "G:\IAR                      #
#                          projects\Coordinator\Projects\zstack\Samples\Sampl #
#                          eApp\CC2530DB\..\..\..\..\..\Components\services\s #
#                          addr\" -I "G:\IAR projects\Coordinator\Projects\zs #
#                          tack\Samples\SampleApp\CC2530DB\..\..\..\..\..\Com #
#                          ponents\services\sdata\" -I "G:\IAR                #
#                          projects\Coordinator\Projects\zstack\Samples\Sampl #
#                          eApp\CC2530DB\..\..\..\..\..\Components\stack\af\" #
#                           -I "G:\IAR projects\Coordinator\Projects\zstack\S #
#                          amples\SampleApp\CC2530DB\..\..\..\..\..\Component #
#                          s\stack\nwk\" -I "G:\IAR                           #
#                          projects\Coordinator\Projects\zstack\Samples\Sampl #
#                          eApp\CC2530DB\..\..\..\..\..\Components\stack\sapi #
#                          \" -I "G:\IAR projects\Coordinator\Projects\zstack #
#                          \Samples\SampleApp\CC2530DB\..\..\..\..\..\Compone #
#                          nts\stack\sec\" -I "G:\IAR                         #
#                          projects\Coordinator\Projects\zstack\Samples\Sampl #
#                          eApp\CC2530DB\..\..\..\..\..\Components\stack\sys\ #
#                          " -I "G:\IAR projects\Coordinator\Projects\zstack\ #
#                          Samples\SampleApp\CC2530DB\..\..\..\..\..\Componen #
#                          ts\stack\zdo\" -I "G:\IAR                          #
#                          projects\Coordinator\Projects\zstack\Samples\Sampl #
#                          eApp\CC2530DB\..\..\..\..\..\Components\zmac\" -I  #
#                          "G:\IAR projects\Coordinator\Projects\zstack\Sampl #
#                          es\SampleApp\CC2530DB\..\..\..\..\..\Components\zm #
#                          ac\f8w\" -Ohz --require_prototypes                 #
#    List file          =  G:\IAR projects\Coordinator\Projects\zstack\Sample #
#                          s\SampleApp\CC2530DB\CoordinatorEB\List\SampleApp. #
#                          lst                                                #
#    Object file        =  G:\IAR projects\Coordinator\Projects\zstack\Sample #
#                          s\SampleApp\CC2530DB\CoordinatorEB\Obj\SampleApp.r #
#                          51                                                 #
#                                                                             #
#                                                                             #
###############################################################################

G:\IAR projects\Coordinator\Projects\zstack\Samples\SampleApp\Source\SampleApp.c
      1          /**************************************************************************************************
      2          Filename:       SampleApp.c
      3          Revised:        $Date: 2009-03-18 15:56:27 -0700 (Wed, 18 Mar 2009) $
      4          Revision:       $Revision: 19453 $
      5          
      6          Description:    Sample Application (no Profile).
      7          
      8          
      9          Copyright 2007 Texas Instruments Incorporated. All rights reserved.
     10          
     11          IMPORTANT: Your use of this Software is limited to those specific rights
     12          granted under the terms of a software license agreement between the user
     13          who downloaded the software, his/her employer (which must be your employer)
     14          and Texas Instruments Incorporated (the "License").  You may not use this
     15          Software unless you agree to abide by the terms of the License. The License
     16          limits your use, and you acknowledge, that the Software may not be modified,
     17          copied or distributed unless embedded on a Texas Instruments microcontroller
     18          or used solely and exclusively in conjunction with a Texas Instruments radio
     19          frequency transceiver, which is integrated into your product.  Other than for
     20          the foregoing purpose, you may not use, reproduce, copy, prepare derivative
     21          works of, modify, distribute, perform, display or sell this Software and/or
     22          its documentation for any purpose.
     23          
     24          YOU FURTHER ACKNOWLEDGE AND AGREE THAT THE SOFTWARE AND DOCUMENTATION ARE
     25          PROVIDED AS IS?WITHOUT WARRANTY OF ANY KIND, EITHER EXPRESS OR IMPLIED,
     26          INCLUDING WITHOUT LIMITATION, ANY WARRANTY OF MERCHANTABILITY, TITLE,
     27          NON-INFRINGEMENT AND FITNESS FOR A PARTICULAR PURPOSE. IN NO EVENT SHALL
     28          TEXAS INSTRUMENTS OR ITS LICENSORS BE LIABLE OR OBLIGATED UNDER CONTRACT,
     29          NEGLIGENCE, STRICT LIABILITY, CONTRIBUTION, BREACH OF WARRANTY, OR OTHER
     30          LEGAL EQUITABLE THEORY ANY DIRECT OR INDIRECT DAMAGES OR EXPENSES
     31          INCLUDING BUT NOT LIMITED TO ANY INCIDENTAL, SPECIAL, INDIRECT, PUNITIVE
     32          OR CONSEQUENTIAL DAMAGES, LOST PROFITS OR LOST DATA, COST OF PROCUREMENT
     33          OF SUBSTITUTE GOODS, TECHNOLOGY, SERVICES, OR ANY CLAIMS BY THIRD PARTIES
     34          (INCLUDING BUT NOT LIMITED TO ANY DEFENSE THEREOF), OR OTHER SIMILAR COSTS.
     35          
     36          Should you have any questions regarding your right to use this Software,
     37          contact Texas Instruments Incorporated at www.TI.com.
     38          **************************************************************************************************/
     39          
     40          /*********************************************************************
     41          This application isn't intended to do anything useful, it is
     42          intended to be a simple example of an application's structure.
     43          
     44          This application sends it's messages either as broadcast or
     45          broadcast filtered group messages.  The other (more normal)
     46          message addressing is unicast.  Most of the other sample
     47          applications are written to support the unicast message model.
     48          
     49          Key control:
     50          SW1:  Sends a flash command to all devices in Group 1.
     51          SW2:  Adds/Removes (toggles) this device in and out
     52          of Group 1.  This will enable and disable the
     53          reception of the flash command.
     54          *********************************************************************/
     55          
     56          /*********************************************************************
     57          * INCLUDES
     58          */
     59          #include "OSAL.h"
     60          #include "ZGlobals.h"
     61          #include "AF.h"
     62          #include "aps_groups.h"
     63          #include "ZDApp.h"
     64          #include "ZDObject.h"
     65          #include "ZDProfile.h"
     66          #include <string.h>
     67          #include "DebugTrace.h"
     68          #include "ZComDef.h"
     69          
     70          #include "SampleApp.h"
     71          #include "SampleAppHw.h"
     72          
     73          #include "OnBoard.h"

   \                                 In  segment SFR_AN, at 0xf5
   \   unsigned char volatile __sfr P2SEL
   \                     P2SEL:
   \   000000                DS 1

   \                                 In  segment SFR_AN, at 0xf7
   \   unsigned char volatile __sfr P2INP
   \                     P2INP:
   \   000000                DS 1

   \                                 In  segment SFR_AN, at 0xff
   \   unsigned char volatile __sfr P2DIR
   \                     P2DIR:
   \   000000                DS 1
     74          
     75          /* HAL */
     76          #include "hal_lcd.h"
     77          #include "hal_led.h"
     78          #include "hal_key.h"
     79          
     80          #include  "MT_UART.h" //此处用于串口
     81          
     82          //光敏电阻定义
     83          //#define LIGHT P2_0      //光敏为P2.0口控制
     84          //定义IO
     85          #define PEOPLE P2_0
     86          
     87          /*********************************************************************
     88          * MACROS
     89          */
     90          
     91          /*********************************************************************
     92          * CONSTANTS
     93          */
     94          
     95          /*********************************************************************
     96          * TYPEDEFS
     97          */
     98          
     99          /*********************************************************************
    100          * GLOBAL VARIABLES
    101          */
    102          
    103          // This list should be filled with Application specific Cluster IDs.

   \                                 In  segment XDATA_ROM_C, align 1
    104          const cId_t SampleApp_ClusterList[SAMPLEAPP_MAX_CLUSTERS] =
   \                     SampleApp_ClusterList:
   \   000000   0100         DW 1
   \   000002   0200         DW 2
   \   000004   0000         DW 0
   \   000006   0000         DW 0
   \   000008   0000         DW 0
    105          {
    106            SAMPLEAPP_PERIODIC_CLUSTERID,
    107            SAMPLEAPP_FLASH_CLUSTERID
    108          };
    109          

   \                                 In  segment XDATA_ROM_C, align 1
    110          const SimpleDescriptionFormat_t SampleApp_SimpleDesc =
   \                     SampleApp_SimpleDesc:
   \   000000   14           DB 20
   \   000001   080F         DW 3848
   \   000003   0100         DW 1
   \   000005   00           DB 0
   \   000006   05           DB 5
   \   000007   ....         DW SampleApp_ClusterList
   \   000009   05           DB 5
   \   00000A   ....         DW SampleApp_ClusterList
    111          {
    112            SAMPLEAPP_ENDPOINT,              //  int Endpoint;
    113            SAMPLEAPP_PROFID,                //  uint16 AppProfId[2];
    114            SAMPLEAPP_DEVICEID,              //  uint16 AppDeviceId[2];
    115            SAMPLEAPP_DEVICE_VERSION,        //  int   AppDevVer:4;
    116            SAMPLEAPP_FLAGS,                 //  int   AppFlags:4;
    117            SAMPLEAPP_MAX_CLUSTERS,          //  uint8  AppNumInClusters;
    118            (cId_t *)SampleApp_ClusterList,  //  uint8 *pAppInClusterList;
    119            SAMPLEAPP_MAX_CLUSTERS,          //  uint8  AppNumInClusters;
    120            (cId_t *)SampleApp_ClusterList   //  uint8 *pAppInClusterList;
    121          };
    122          
    123          // This is the Endpoint/Interface description.  It is defined here, but
    124          // filled-in in SampleApp_Init().  Another way to go would be to fill
    125          // in the structure here and make it a "const" (in code space).  The
    126          // way it's defined in this sample app it is define in RAM.

   \                                 In  segment XDATA_Z, align 1, keep-with-next
    127          endPointDesc_t SampleApp_epDesc;
   \                     SampleApp_epDesc:
   \   000000                DS 6
   \   000006                REQUIRE __INIT_XDATA_Z
    128          
    129          /*********************************************************************
    130          * EXTERNAL VARIABLES
    131          */
    132          
    133          /*********************************************************************
    134          * EXTERNAL FUNCTIONS
    135          */
    136          
    137          /*********************************************************************
    138          * LOCAL VARIABLES
    139          */

   \                                 In  segment XDATA_Z, align 1, keep-with-next
    140          uint8 SampleApp_TaskID;   // Task ID for internal task/event processing
   \                     SampleApp_TaskID:
   \   000000                DS 1
   \   000001                REQUIRE __INIT_XDATA_Z
    141          // This variable will be received when
    142          // SampleApp_Init() is called.

   \                                 In  segment XDATA_Z, align 1, keep-with-next
    143          devStates_t SampleApp_NwkState;
   \                     SampleApp_NwkState:
   \   000000                DS 1
   \   000001                REQUIRE __INIT_XDATA_Z
    144          

   \                                 In  segment XDATA_Z, align 1, keep-with-next
    145          uint8 SampleApp_TransID;  // This is the unique message ID (counter)
   \                     SampleApp_TransID:
   \   000000                DS 1
   \   000001                REQUIRE __INIT_XDATA_Z
    146          

   \                                 In  segment XDATA_Z, align 1, keep-with-next
    147          afAddrType_t SampleApp_Periodic_DstAddr;
   \                     SampleApp_Periodic_DstAddr:
   \   000000                DS 12
   \   00000C                REQUIRE __INIT_XDATA_Z

   \                                 In  segment XDATA_Z, align 1, keep-with-next
    148          afAddrType_t SampleApp_Flash_DstAddr;
   \                     SampleApp_Flash_DstAddr:
   \   000000                DS 12
   \   00000C                REQUIRE __INIT_XDATA_Z
    149          

   \                                 In  segment XDATA_Z, align 1, keep-with-next
    150          afAddrType_t Point_To_Point_DstAddr;//网蜂点对点通信定义
   \                     Point_To_Point_DstAddr:
   \   000000                DS 12
   \   00000C                REQUIRE __INIT_XDATA_Z
    151          

   \                                 In  segment XDATA_Z, align 1, keep-with-next
    152          aps_Group_t SampleApp_Group;
   \                     SampleApp_Group:
   \   000000                DS 18
   \   000012                REQUIRE __INIT_XDATA_Z
    153          

   \                                 In  segment XDATA_Z, align 1, keep-with-next
    154          uint8 SampleAppPeriodicCounter = 0;
   \                     SampleAppPeriodicCounter:
   \   000000                DS 1
   \   000001                REQUIRE __INIT_XDATA_Z

   \                                 In  segment XDATA_Z, align 1, keep-with-next
    155          uint8 SampleAppFlashCounter = 0;
   \                     SampleAppFlashCounter:
   \   000000                DS 1
   \   000001                REQUIRE __INIT_XDATA_Z
    156          
    157          /*********************************************************************
    158          * LOCAL FUNCTIONS
    159          */
    160          void SampleApp_HandleKeys( uint8 shift, uint8 keys );
    161          void SampleApp_MessageMSGCB( afIncomingMSGPacket_t *pckt );
    162          void SampleApp_SendPeriodicMessage( void );
    163          void SampleApp_SendFlashMessage( uint16 flashTime );
    164          //void SampleApp_SendPointToPointMessage(void );
    165          void To_string(uint8 *dest, char *src,uint8 length);
    166          

   \                                 In  segment BANKED_CODE, align 1, keep-with-next
    167          void To_string(uint8 *dest, char *src,uint8 length)
   \                     To_string:
    168          {
   \   000000   74F6         MOV     A,#-0xa
   \   000002   12....       LCALL   ?BANKED_ENTER_XDATA
   \   000005                ; Saved register size: 10
   \   000005                ; Auto size: 0
   \   000005   E9           MOV     A,R1
   \   000006   FE           MOV     R6,A
    169            uint8 *xad;
    170            uint8 i = 0;
    171            uint8 ch;
    172            xad = src + length - 1;
                       ^
Warning[Pe513]: a value of type "char *" cannot be assigned to an entity of
          type "unsigned char *"
   \   000007   8E..         MOV     ?V0 + 0,R6
   \   000009   EC           MOV     A,R4
   \   00000A   25..         ADD     A,?V0 + 0
   \   00000C   F8           MOV     R0,A
   \   00000D   ED           MOV     A,R5
   \   00000E   3400         ADDC    A,#0x0
   \   000010   F9           MOV     R1,A
   \   000011   E8           MOV     A,R0
   \   000012   24FF         ADD     A,#-0x1
   \   000014   18           DEC     R0
   \   000015   E9           MOV     A,R1
   \   000016   34FF         ADDC    A,#-0x1
   \   000018   F9           MOV     R1,A
    173            for(i = 0;i < length; i++, xad--)
   \   000019   7F00         MOV     R7,#0x0
   \   00001B   8020         SJMP    ??To_string_0
    174            {
    175              ch = (*xad >> 4) & 0x0f;
    176              dest[i<<1] = ch + ((ch < 10) ? '0' : '7');
    177              ch = *xad & 0x0f;
    178              dest[(i<<1) + 1] = ch + (( ch < 10 ) ? '0' : '7');
   \                     ??To_string_1:
   \   00001D   7C37         MOV     R4,#0x37
   \                     ??To_string_2:
   \   00001F   EC           MOV     A,R4
   \   000020   25..         ADD     A,?V0 + 0
   \   000022   C0E0         PUSH    A
   \   000024   EF           MOV     A,R7
   \   000025   C3           CLR     C
   \   000026   33           RLC     A
   \   000027   FC           MOV     R4,A
   \   000028   EA           MOV     A,R2
   \   000029   2C           ADD     A,R4
   \   00002A   F582         MOV     DPL,A
   \   00002C   EB           MOV     A,R3
   \   00002D   3D           ADDC    A,R5
   \   00002E   F583         MOV     DPH,A
   \   000030   A3           INC     DPTR
   \   000031   D0E0         POP     A
   \   000033   F0           MOVX    @DPTR,A
   \   000034   0F           INC     R7
   \   000035   E8           MOV     A,R0
   \   000036   24FF         ADD     A,#-0x1
   \   000038   18           DEC     R0
   \   000039   E9           MOV     A,R1
   \   00003A   34FF         ADDC    A,#-0x1
   \   00003C   F9           MOV     R1,A
   \                     ??To_string_0:
   \   00003D   EF           MOV     A,R7
   \   00003E   C3           CLR     C
   \   00003F   9E           SUBB    A,R6
   \   000040   503E         JNC     ??To_string_3
   \   000042   8882         MOV     DPL,R0
   \   000044   8983         MOV     DPH,R1
   \   000046   E0           MOVX    A,@DPTR
   \   000047   C4           SWAP    A
   \   000048   540F         ANL     A,#0xf
   \   00004A   F5..         MOV     ?V0 + 0,A
   \   00004C   C3           CLR     C
   \   00004D   940A         SUBB    A,#0xa
   \   00004F   5004         JNC     ??To_string_4
   \   000051   7C30         MOV     R4,#0x30
   \   000053   8002         SJMP    ??To_string_5
   \                     ??To_string_4:
   \   000055   7C37         MOV     R4,#0x37
   \                     ??To_string_5:
   \   000057   EC           MOV     A,R4
   \   000058   25..         ADD     A,?V0 + 0
   \   00005A   C0E0         PUSH    A
   \   00005C   EF           MOV     A,R7
   \   00005D   C3           CLR     C
   \   00005E   33           RLC     A
   \   00005F   FC           MOV     R4,A
   \   000060   E4           CLR     A
   \   000061   33           RLC     A
   \   000062   FD           MOV     R5,A
   \   000063   EA           MOV     A,R2
   \   000064   2C           ADD     A,R4
   \   000065   F582         MOV     DPL,A
   \   000067   EB           MOV     A,R3
   \   000068   3D           ADDC    A,R5
   \   000069   F583         MOV     DPH,A
   \   00006B   D0E0         POP     A
   \   00006D   F0           MOVX    @DPTR,A
   \   00006E   8882         MOV     DPL,R0
   \   000070   8983         MOV     DPH,R1
   \   000072   E0           MOVX    A,@DPTR
   \   000073   540F         ANL     A,#0xf
   \   000075   F5..         MOV     ?V0 + 0,A
   \   000077   C3           CLR     C
   \   000078   940A         SUBB    A,#0xa
   \   00007A   50A1         JNC     ??To_string_1
   \   00007C   7C30         MOV     R4,#0x30
   \   00007E   809F         SJMP    ??To_string_2
    179            } 
    180          }
   \                     ??To_string_3:
   \   000080   80..         SJMP    ??Subroutine3_0

   \                                 In  segment BANKED_CODE, align 1, keep-with-next
   \                     ??Subroutine3_0:
   \   000000   7F02         MOV     R7,#0x2
   \   000002   02....       LJMP    ?BANKED_LEAVE_XDATA
    181          
    182          /*********************************************************************
    183          * NETWORK LAYER CALLBACKS
    184          */
    185          
    186          /*********************************************************************
    187          * PUBLIC FUNCTIONS
    188          */
    189          
    190          /*********************************************************************
    191          * @fn      SampleApp_Init
    192          *
    193          * @brief   Initialization function for the Generic App Task.
    194          *          This is called during initialization and should contain
    195          *          any application specific initialization (ie. hardware
    196          *          initialization/setup, table initialization, power up
    197          *          notificaiton ... ).
    198          *
    199          * @param   task_id - the ID assigned by OSAL.  This ID should be
    200          *                    used to send messages and set timers.
    201          *
    202          * @return  none
    203          */

   \                                 In  segment BANKED_CODE, align 1, keep-with-next
    204          void SampleApp_Init( uint8 task_id )
   \                     SampleApp_Init:
    205          {
   \   000000   74F5         MOV     A,#-0xb
   \   000002   12....       LCALL   ?BANKED_ENTER_XDATA
   \   000005                ; Saved register size: 11
   \   000005                ; Auto size: 0
   \   000005   E9           MOV     A,R1
   \   000006   FE           MOV     R6,A
    206            SampleApp_TaskID = task_id;
   \   000007   90....       MOV     DPTR,#SampleApp_TaskID
   \   00000A   F0           MOVX    @DPTR,A
    207            SampleApp_NwkState = DEV_INIT;
   \   00000B   90....       MOV     DPTR,#SampleApp_NwkState
   \   00000E   7401         MOV     A,#0x1
   \   000010   F0           MOVX    @DPTR,A
    208            SampleApp_TransID = 0;
   \   000011   90....       MOV     DPTR,#SampleApp_TransID
   \   000014   E4           CLR     A
   \   000015   F0           MOVX    @DPTR,A
    209            
    210            MT_UartInit();//串口初始化
   \   000016                ; Setup parameters for call to function MT_UartInit
   \   000016   12....       LCALL   ??MT_UartInit?relay
    211            MT_UartRegisterTaskID(task_id);//登记任务号
   \   000019                ; Setup parameters for call to function MT_UartRegisterTaskID
   \   000019   EE           MOV     A,R6
   \   00001A   F9           MOV     R1,A
   \   00001B   12....       LCALL   ??MT_UartRegisterTaskID?relay
    212            HalUARTWrite(0,"Hello World\n",12); //（串口0，'字符'，字符个数。）
   \   00001E                ; Setup parameters for call to function HalUARTWrite
   \   00001E   7C0C         MOV     R4,#0xc
   \   000020   7D00         MOV     R5,#0x0
   \   000022   7A..         MOV     R2,#`?<Constant "Hello World\\n">` & 0xff
   \   000024   7B..         MOV     R3,#(`?<Constant "Hello World\\n">` >> 8) & 0xff
   \   000026   7900         MOV     R1,#0x0
   \   000028   12....       LCALL   ??HalUARTWrite?relay
    213            
    214            /******人体红外电路初始化******/
    215            P2SEL &= ~0X01;    //设置P2.0为普通IO口  
   \   00002B   53F5FE       ANL     0xf5,#0xfe
    216            P2DIR &= ~0X01;    // 在P2.0口，设置为输入模式 
   \   00002E   53FFFE       ANL     0xff,#0xfe
    217            P2INP &= ~0x01;    //打开P2.0上拉电阻
   \   000031   53F7FE       ANL     0xf7,#0xfe
    218            
    219            // Device hardware initialization can be added here or in main() (Zmain.c).
    220            // If the hardware is application specific - add it here.
    221            // If the hardware is other parts of the device add it in main().
    222            
    223          #if defined ( BUILD_ALL_DEVICES )
    224            // The "Demo" target is setup to have BUILD_ALL_DEVICES and HOLD_AUTO_START
    225            // We are looking at a jumper (defined in SampleAppHw.c) to be jumpered
    226            // together - if they are - we will start up a coordinator. Otherwise,
    227            // the device will start as a router.
    228            if ( readCoordinatorJumper() )
    229              zgDeviceLogicalType = ZG_DEVICETYPE_COORDINATOR;
    230            else
    231              zgDeviceLogicalType = ZG_DEVICETYPE_ROUTER;
    232          #endif // BUILD_ALL_DEVICES
    233            
    234          #if defined ( HOLD_AUTO_START )
    235            // HOLD_AUTO_START is a compile option that will surpress ZDApp
    236            //  from starting the device and wait for the application to
    237            //  start the device.
    238            ZDOInitDevice(0);
    239          #endif
    240            
    241            // Setup for the periodic message's destination address
    242            // Broadcast to everyone
    243            SampleApp_Periodic_DstAddr.addrMode = (afAddrMode_t)AddrBroadcast;
   \   000034   90....       MOV     DPTR,#SampleApp_Periodic_DstAddr + 8
   \   000037   740F         MOV     A,#0xf
   \   000039   F0           MOVX    @DPTR,A
    244            SampleApp_Periodic_DstAddr.endPoint = SAMPLEAPP_ENDPOINT;
   \   00003A   A3           INC     DPTR
   \   00003B   7414         MOV     A,#0x14
   \   00003D   F0           MOVX    @DPTR,A
    245            SampleApp_Periodic_DstAddr.addr.shortAddr = 0xFFFF;
   \   00003E   90....       MOV     DPTR,#SampleApp_Periodic_DstAddr
   \   000041   74FF         MOV     A,#-0x1
   \   000043   F0           MOVX    @DPTR,A
   \   000044   A3           INC     DPTR
   \   000045   F0           MOVX    @DPTR,A
    246            
    247            // Setup for the flash command's destination address - Group 1
    248            SampleApp_Flash_DstAddr.addrMode = (afAddrMode_t)afAddrGroup;
   \   000046   90....       MOV     DPTR,#SampleApp_Flash_DstAddr + 8
   \   000049   7401         MOV     A,#0x1
   \   00004B   F0           MOVX    @DPTR,A
    249            SampleApp_Flash_DstAddr.endPoint = SAMPLEAPP_ENDPOINT;
   \   00004C   A3           INC     DPTR
   \   00004D   7414         MOV     A,#0x14
   \   00004F   F0           MOVX    @DPTR,A
    250            SampleApp_Flash_DstAddr.addr.shortAddr = SAMPLEAPP_FLASH_GROUP;
   \   000050   90....       MOV     DPTR,#SampleApp_Flash_DstAddr
   \   000053   7401         MOV     A,#0x1
   \   000055   F0           MOVX    @DPTR,A
   \   000056   A3           INC     DPTR
   \   000057   E4           CLR     A
   \   000058   F0           MOVX    @DPTR,A
    251            
    252            // 网蜂点对点通讯定义
    253            /*Point_To_Point_DstAddr.addrMode = (afAddrMode_t)Addr16Bit;//点播
    254            Point_To_Point_DstAddr.endPoint = SAMPLEAPP_ENDPOINT;
    255            Point_To_Point_DstAddr.addr.shortAddr = 0x0000; //发给协调器*/
    256            
    257            
    258            // Fill out the endpoint description.
    259            SampleApp_epDesc.endPoint = SAMPLEAPP_ENDPOINT;
   \   000059   90....       MOV     DPTR,#SampleApp_epDesc
   \   00005C   7414         MOV     A,#0x14
   \   00005E   F0           MOVX    @DPTR,A
    260            SampleApp_epDesc.task_id = &SampleApp_TaskID;
   \   00005F   A3           INC     DPTR
   \   000060   74..         MOV     A,#SampleApp_TaskID & 0xff
   \   000062   F0           MOVX    @DPTR,A
   \   000063   A3           INC     DPTR
   \   000064   74..         MOV     A,#(SampleApp_TaskID >> 8) & 0xff
   \   000066   F0           MOVX    @DPTR,A
    261            SampleApp_epDesc.simpleDesc
    262              = (SimpleDescriptionFormat_t *)&SampleApp_SimpleDesc;
   \   000067   A3           INC     DPTR
   \   000068   74..         MOV     A,#SampleApp_SimpleDesc & 0xff
   \   00006A   F0           MOVX    @DPTR,A
   \   00006B   A3           INC     DPTR
   \   00006C   74..         MOV     A,#(SampleApp_SimpleDesc >> 8) & 0xff
   \   00006E   F0           MOVX    @DPTR,A
    263            SampleApp_epDesc.latencyReq = noLatencyReqs;
   \   00006F   A3           INC     DPTR
   \   000070   E4           CLR     A
   \   000071   F0           MOVX    @DPTR,A
    264            
    265            // Register the endpoint description with the AF
    266            afRegister( &SampleApp_epDesc );
   \   000072                ; Setup parameters for call to function afRegister
   \   000072   7A..         MOV     R2,#SampleApp_epDesc & 0xff
   \   000074   7B..         MOV     R3,#(SampleApp_epDesc >> 8) & 0xff
   \   000076   12....       LCALL   ??afRegister?relay
    267            
    268            // Register for all key events - This app will handle all key events
    269            RegisterForKeys( SampleApp_TaskID );
   \   000079                ; Setup parameters for call to function RegisterForKeys
   \   000079   90....       MOV     DPTR,#SampleApp_TaskID
   \   00007C   E0           MOVX    A,@DPTR
   \   00007D   F9           MOV     R1,A
   \   00007E   12....       LCALL   ??RegisterForKeys?relay
    270            
    271            // By default, all devices start out in Group 1
    272            SampleApp_Group.ID = 0x0001;
   \   000081   90....       MOV     DPTR,#SampleApp_Group
   \   000084   7401         MOV     A,#0x1
   \   000086   F0           MOVX    @DPTR,A
   \   000087   A3           INC     DPTR
   \   000088   E4           CLR     A
   \   000089   F0           MOVX    @DPTR,A
    273            osal_memcpy( SampleApp_Group.name, "Group 1", 7  );
   \   00008A                ; Setup parameters for call to function osal_memcpy
   \   00008A   75....       MOV     ?V0 + 0,#`?<Constant "Group 1">` & 0xff
   \   00008D   75....       MOV     ?V0 + 1,#(`?<Constant "Group 1">` >> 8) & 0xff
   \   000090   F5..         MOV     ?V0 + 2,A
   \   000092   78..         MOV     R0,#?V0 + 0
   \   000094   12....       LCALL   ?PUSH_XSTACK_I_THREE
   \   000097   7C07         MOV     R4,#0x7
   \   000099   7D00         MOV     R5,#0x0
   \   00009B   7A..         MOV     R2,#(SampleApp_Group + 2) & 0xff
   \   00009D   7B..         MOV     R3,#((SampleApp_Group + 2) >> 8) & 0xff
   \   00009F   12....       LCALL   ??osal_memcpy?relay
   \   0000A2   7403         MOV     A,#0x3
   \   0000A4   12....       LCALL   ?DEALLOC_XSTACK8
    274            aps_AddGroup( SAMPLEAPP_ENDPOINT, &SampleApp_Group );
   \   0000A7                ; Setup parameters for call to function aps_AddGroup
   \   0000A7   7A..         MOV     R2,#SampleApp_Group & 0xff
   \   0000A9   7B..         MOV     R3,#(SampleApp_Group >> 8) & 0xff
   \   0000AB   7914         MOV     R1,#0x14
   \   0000AD   12....       LCALL   ??aps_AddGroup?relay
    275            
    276          #if defined ( LCD_SUPPORTED )
    277            HalLcdWriteString( "SampleApp", HAL_LCD_LINE_1 );
   \   0000B0                ; Setup parameters for call to function HalLcdWriteString
   \   0000B0   7901         MOV     R1,#0x1
   \   0000B2   7A..         MOV     R2,#`?<Constant "SampleApp">` & 0xff
   \   0000B4   7B..         MOV     R3,#(`?<Constant "SampleApp">` >> 8) & 0xff
   \   0000B6   12....       LCALL   ??HalLcdWriteString?relay
    278          #endif
    279          }
   \   0000B9                REQUIRE ?Subroutine1
   \   0000B9                REQUIRE P2SEL
   \   0000B9                REQUIRE P2DIR
   \   0000B9                REQUIRE P2INP
   \   0000B9                ; // Fall through to label ?Subroutine1

   \                                 In  segment BANKED_CODE, align 1, keep-with-next
   \                     ?Subroutine1:
   \   000000   7F03         MOV     R7,#0x3
   \   000002   02....       LJMP    ?BANKED_LEAVE_XDATA
    280          
    281          /*********************************************************************
    282          * @fn      SampleApp_ProcessEvent
    283          *
    284          * @brief   Generic Application Task event processor.  This function
    285          *          is called to process all events for the task.  Events
    286          *          include timers, messages and any other user defined events.
    287          *
    288          * @param   task_id  - The OSAL assigned task ID.
    289          * @param   events - events to process.  This is a bit map and can
    290          *                   contain more than one event.
    291          *
    292          * @return  none
    293          */

   \                                 In  segment BANKED_CODE, align 1, keep-with-next
    294          uint16 SampleApp_ProcessEvent( uint8 task_id, uint16 events )
   \                     SampleApp_ProcessEvent:
    295          {
   \   000000   74F4         MOV     A,#-0xc
   \   000002   12....       LCALL   ?BANKED_ENTER_XDATA
   \   000005                ; Saved register size: 12
   \   000005                ; Auto size: 0
   \   000005   8A..         MOV     ?V0 + 0,R2
   \   000007   8B..         MOV     ?V0 + 1,R3
    296            afIncomingMSGPacket_t *MSGpkt;
    297            (void)task_id;  // Intentionally unreferenced parameter
    298            
    299            if ( events & SYS_EVENT_MSG )
   \   000009   EB           MOV     A,R3
   \   00000A   5480         ANL     A,#0x80
   \   00000C   6073         JZ      ??SampleApp_ProcessEvent_0
    300            {
    301              MSGpkt = (afIncomingMSGPacket_t *)osal_msg_receive( SampleApp_TaskID );
   \   00000E                ; Setup parameters for call to function osal_msg_receive
   \   00000E   8026         SJMP    ??SampleApp_ProcessEvent_1
    302              while ( MSGpkt )
    303              {
    304                switch ( MSGpkt->hdr.event )
    305                {
    306                  // Received when a key is pressed
    307                case KEY_CHANGE:
    308                  SampleApp_HandleKeys( ((keyChange_t *)MSGpkt)->state, ((keyChange_t *)MSGpkt)->keys );
    309                  break;
    310                  
    311                  // Received when a messages is received (OTA) for this endpoint
    312                case AF_INCOMING_MSG_CMD:
    313                  SampleApp_MessageMSGCB( MSGpkt );
    314                  break;
    315                  
    316                  // Received whenever the device changes state in the network
    317                case ZDO_STATE_CHANGE:
    318                  SampleApp_NwkState = (devStates_t)(MSGpkt->hdr.status);
   \                     ??SampleApp_ProcessEvent_2:
   \   000010   A3           INC     DPTR
   \   000011   E0           MOVX    A,@DPTR
   \   000012   90....       MOV     DPTR,#SampleApp_NwkState
   \   000015   F0           MOVX    @DPTR,A
    319                  if ( //(SampleApp_NwkState == DEV_ZB_COORD)|| //协调器不给自己点播
    320                      (SampleApp_NwkState == DEV_ROUTER)
    321                        || (SampleApp_NwkState == DEV_END_DEVICE) )
   \   000016   6407         XRL     A,#0x7
   \   000018   6005         JZ      ??SampleApp_ProcessEvent_3
   \   00001A   E0           MOVX    A,@DPTR
   \   00001B   6406         XRL     A,#0x6
   \   00001D   7010         JNZ     ??SampleApp_ProcessEvent_4
    322                  {
    323                    // Start sending the periodic message in a regular interval.
    324                    osal_start_timerEx( SampleApp_TaskID,
    325                                       SAMPLEAPP_SEND_PERIODIC_MSG_EVT,
    326                                       SAMPLEAPP_SEND_PERIODIC_MSG_TIMEOUT );
   \                     ??SampleApp_ProcessEvent_3:
   \   00001F                ; Setup parameters for call to function osal_start_timerEx
   \   00001F   7CF4         MOV     R4,#-0xc
   \   000021   7D01         MOV     R5,#0x1
   \   000023   7A01         MOV     R2,#0x1
   \   000025   7B00         MOV     R3,#0x0
   \   000027   90....       MOV     DPTR,#SampleApp_TaskID
   \   00002A   E0           MOVX    A,@DPTR
   \   00002B   F9           MOV     R1,A
   \   00002C   12....       LCALL   ??osal_start_timerEx?relay
    327                  }
    328                  else
    329                  {
    330                    // Device is no longer in the network
    331                  }
    332                  break;
    333                  
    334                default:
    335                  break;
    336                }
    337                
    338                // Release the memory
    339                osal_msg_deallocate( (uint8 *)MSGpkt );
   \                     ??SampleApp_ProcessEvent_4:
   \   00002F                ; Setup parameters for call to function osal_msg_deallocate
   \   00002F   EE           MOV     A,R6
   \   000030   FA           MOV     R2,A
   \   000031   EF           MOV     A,R7
   \   000032   FB           MOV     R3,A
   \   000033   12....       LCALL   ??osal_msg_deallocate?relay
    340                
    341                // Next - if one is available
    342                MSGpkt = (afIncomingMSGPacket_t *)osal_msg_receive( SampleApp_TaskID );
   \   000036                ; Setup parameters for call to function osal_msg_receive
   \                     ??SampleApp_ProcessEvent_1:
   \   000036   90....       MOV     DPTR,#SampleApp_TaskID
   \   000039   E0           MOVX    A,@DPTR
   \   00003A   F9           MOV     R1,A
   \   00003B   12....       LCALL   ??osal_msg_receive?relay
   \   00003E   8A..         MOV     ?V0 + 2,R2
   \   000040   8B..         MOV     ?V0 + 3,R3
   \   000042   AE..         MOV     R6,?V0 + 2
   \   000044   AF..         MOV     R7,?V0 + 3
   \   000046   EE           MOV     A,R6
   \   000047   4F           ORL     A,R7
   \   000048   602E         JZ      ??SampleApp_ProcessEvent_5
   \   00004A   8E82         MOV     DPL,R6
   \   00004C   8F83         MOV     DPH,R7
   \   00004E   E0           MOVX    A,@DPTR
   \   00004F   24E6         ADD     A,#-0x1a
   \   000051   601C         JZ      ??SampleApp_ProcessEvent_6
   \   000053   245A         ADD     A,#0x5a
   \   000055   6006         JZ      ??SampleApp_ProcessEvent_7
   \   000057   24EF         ADD     A,#-0x11
   \   000059   60B5         JZ      ??SampleApp_ProcessEvent_2
   \   00005B   80D2         SJMP    ??SampleApp_ProcessEvent_4
   \                     ??SampleApp_ProcessEvent_7:
   \   00005D                ; Setup parameters for call to function SampleApp_HandleKeys
   \   00005D   A3           INC     DPTR
   \   00005E   A3           INC     DPTR
   \   00005F   A3           INC     DPTR
   \   000060   E0           MOVX    A,@DPTR
   \   000061   FA           MOV     R2,A
   \   000062   8E82         MOV     DPL,R6
   \   000064   8F83         MOV     DPH,R7
   \   000066   A3           INC     DPTR
   \   000067   A3           INC     DPTR
   \   000068   E0           MOVX    A,@DPTR
   \   000069   F9           MOV     R1,A
   \   00006A   12....       LCALL   ??SampleApp_HandleKeys?relay
   \   00006D   80C0         SJMP    ??SampleApp_ProcessEvent_4
   \                     ??SampleApp_ProcessEvent_6:
   \   00006F                ; Setup parameters for call to function SampleApp_MessageMSGCB
   \   00006F   EE           MOV     A,R6
   \   000070   FA           MOV     R2,A
   \   000071   EF           MOV     A,R7
   \   000072   FB           MOV     R3,A
   \   000073   12....       LCALL   ??SampleApp_MessageMSGCB?relay
   \   000076   80B7         SJMP    ??SampleApp_ProcessEvent_4
    343              }
    344              
    345              // return unprocessed events
    346              return (events ^ SYS_EVENT_MSG);
   \                     ??SampleApp_ProcessEvent_5:
   \   000078   AA..         MOV     R2,?V0 + 0
   \   00007A   E5..         MOV     A,?V0 + 1
   \   00007C   6480         XRL     A,#0x80
   \   00007E   FB           MOV     R3,A
   \   00007F   8004         SJMP    ??SampleApp_ProcessEvent_8
    347            }
    348            
    349            // Send a message out - This event is generated by a timer
    350            //  (setup in SampleApp_Init()).
    351            /*if ( events & SAMPLEAPP_SEND_PERIODIC_MSG_EVT )
    352            {
    353              // Send the periodic message
    354              //SampleApp_SendPeriodicMessage();//周期性发送函数
    355              //SampleApp_SendPointToPointMessage();//此处替换成点播函数
    356              
    357              // Setup to send message again in normal period (+ a little jitter)
    358              
    359              if(PEOPLE==1)
    360              { 
    361                HalUARTWrite(0,"Got People\n",11);     //串口
    362                HalLcdWriteString( "Got People", HAL_LCD_LINE_3 ); //LCD
    363              }  
    364              else 
    365              {
    366                HalUARTWrite(0,"No People\n",10);       //串口
    367                HalLcdWriteString( "No People", HAL_LCD_LINE_3 );//LCD
    368              }
    369              
    370              osal_start_timerEx( SampleApp_TaskID, SAMPLEAPP_SEND_PERIODIC_MSG_EVT,
    371                               (SAMPLEAPP_SEND_PERIODIC_MSG_TIMEOUT + (osal_rand() & 0x00FF)) );
    372              
    373              // return unprocessed events
    374              return (events ^ SAMPLEAPP_SEND_PERIODIC_MSG_EVT);
    375            }*/
    376            
    377            // Discard unknown events
    378            return 0;
   \                     ??SampleApp_ProcessEvent_0:
   \   000081   7A00         MOV     R2,#0x0
   \   000083   7B00         MOV     R3,#0x0
   \                     ??SampleApp_ProcessEvent_8:
   \   000085   7F04         MOV     R7,#0x4
   \   000087   02....       LJMP    ?BANKED_LEAVE_XDATA
    379          }
    380          
    381          /*********************************************************************
    382          * Event Generation Functions
    383          */
    384          /*********************************************************************
    385          * @fn      SampleApp_HandleKeys
    386          *
    387          * @brief   Handles all key events for this device.
    388          *
    389          * @param   shift - true if in shift/alt.
    390          * @param   keys - bit field for key events. Valid entries:
    391          *                 HAL_KEY_SW_2
    392          *                 HAL_KEY_SW_1
    393          *
    394          * @return  none
    395          */

   \                                 In  segment BANKED_CODE, align 1, keep-with-next
    396          void SampleApp_HandleKeys( uint8 shift, uint8 keys )
   \                     SampleApp_HandleKeys:
    397          {
   \   000000   74F6         MOV     A,#-0xa
   \   000002   12....       LCALL   ?BANKED_ENTER_XDATA
   \   000005                ; Saved register size: 10
   \   000005                ; Auto size: 0
   \   000005   EA           MOV     A,R2
   \   000006   FE           MOV     R6,A
    398            (void)shift;  // Intentionally unreferenced parameter
    399            
    400            if ( keys & HAL_KEY_SW_1 )
   \   000007   A2E0         MOV     C,0xE0 /* A   */.0
   \   000009   5007         JNC     ??SampleApp_HandleKeys_0
    401            {
    402              /* This key sends the Flash Command is sent to Group 1.
    403              * This device will not receive the Flash Command from this
    404              * device (even if it belongs to group 1).
    405              */
    406              SampleApp_SendFlashMessage( SAMPLEAPP_FLASH_DURATION );
   \   00000B                ; Setup parameters for call to function SampleApp_SendFlashMessage
   \   00000B   7AE8         MOV     R2,#-0x18
   \   00000D   7B03         MOV     R3,#0x3
   \   00000F   12....       LCALL   ??SampleApp_SendFlashMessage?relay
    407            }
    408            
    409            if ( keys & HAL_KEY_SW_2 )
   \                     ??SampleApp_HandleKeys_0:
   \   000012   EE           MOV     A,R6
   \   000013   A2E1         MOV     C,0xE0 /* A   */.1
   \   000015   5024         JNC     ??SampleApp_HandleKeys_1
    410            {
    411              /* The Flashr Command is sent to Group 1.
    412              * This key toggles this device in and out of group 1.
    413              * If this device doesn't belong to group 1, this application
    414              * will not receive the Flash command sent to group 1.
    415              */
    416              aps_Group_t *grp;
    417              grp = aps_FindGroup( SAMPLEAPP_ENDPOINT, SAMPLEAPP_FLASH_GROUP );
    418              if ( grp )
   \   000017                ; Setup parameters for call to function aps_FindGroup
   \   000017   7A01         MOV     R2,#0x1
   \   000019   7B00         MOV     R3,#0x0
   \   00001B   7914         MOV     R1,#0x14
   \   00001D   12....       LCALL   ??aps_FindGroup?relay
   \   000020   8B..         MOV     ?V0 + 1,R3
   \   000022   EA           MOV     A,R2
   \   000023   45..         ORL     A,?V0 + 1
   \   000025   600B         JZ      ??SampleApp_HandleKeys_2
    419              {
    420                // Remove from the group
    421                aps_RemoveGroup( SAMPLEAPP_ENDPOINT, SAMPLEAPP_FLASH_GROUP );
   \   000027                ; Setup parameters for call to function aps_RemoveGroup
   \   000027   7A01         MOV     R2,#0x1
   \   000029   7B00         MOV     R3,#0x0
   \   00002B   7914         MOV     R1,#0x14
   \   00002D   12....       LCALL   ??aps_RemoveGroup?relay
   \   000030   8009         SJMP    ??SampleApp_HandleKeys_1
    422              }
    423              else
    424              {
    425                // Add to the flash group
    426                aps_AddGroup( SAMPLEAPP_ENDPOINT, &SampleApp_Group );
   \                     ??SampleApp_HandleKeys_2:
   \   000032                ; Setup parameters for call to function aps_AddGroup
   \   000032   7A..         MOV     R2,#SampleApp_Group & 0xff
   \   000034   7B..         MOV     R3,#(SampleApp_Group >> 8) & 0xff
   \   000036   7914         MOV     R1,#0x14
   \   000038   12....       LCALL   ??aps_AddGroup?relay
    427              }
    428            }
    429          }
   \                     ??SampleApp_HandleKeys_1:
   \   00003B   02....       LJMP    ??Subroutine3_0 & 0xFFFF
    430          
    431          /*********************************************************************
    432          * LOCAL FUNCTIONS
    433          */
    434          
    435          /*********************************************************************
    436          * @fn      SampleApp_MessageMSGCB
    437          *
    438          * @brief   Data message processor callback.  This function processes
    439          *          any incoming data - probably from other devices.  So, based
    440          *          on cluster ID, perform the intended action.
    441          *
    442          * @param   none
    443          *
    444          * @return  none
    445          */

   \                                 In  segment BANKED_CODE, align 1, keep-with-next
    446          void SampleApp_MessageMSGCB( afIncomingMSGPacket_t *pkt )
   \                     SampleApp_MessageMSGCB:
    447          {
   \   000000   74F5         MOV     A,#-0xb
   \   000002   12....       LCALL   ?BANKED_ENTER_XDATA
   \   000005                ; Saved register size: 11
   \   000005                ; Auto size: 20
   \   000005   74EC         MOV     A,#-0x14
   \   000007   12....       LCALL   ?ALLOC_XSTACK8
    448            uint16 flashTime;
    449            RFTX rftx;
    450            
    451            switch ( pkt->clusterId )
   \   00000A   8A82         MOV     DPL,R2
   \   00000C   8B83         MOV     DPH,R3
   \   00000E   A3           INC     DPTR
   \   00000F   A3           INC     DPTR
   \   000010   A3           INC     DPTR
   \   000011   A3           INC     DPTR
   \   000012   E0           MOVX    A,@DPTR
   \   000013   F5..         MOV     ?V0 + 0,A
   \   000015   A3           INC     DPTR
   \   000016   E0           MOVX    A,@DPTR
   \   000017   F5..         MOV     ?V0 + 1,A
   \   000019   78..         MOV     R0,#?V0 + 0
   \   00001B   12....       LCALL   ?US_SWITCH_DENSE
   \                     `?<Jumptable for SampleApp_MessageMSGCB>_0`:
   \   00001E   0200         DW        2
   \   000020   03           DB        3
   \   000021   ....         DW        ??SampleApp_MessageMSGCB_0
   \   000023   ....         DW        ??SampleApp_MessageMSGCB_1
   \   000025   ....         DW        ??SampleApp_MessageMSGCB_0
   \   000027   ....         DW        ??SampleApp_MessageMSGCB_2
   \   000029   ....         DW        ??SampleApp_MessageMSGCB_2
    452            {
    453            case SAMPLEAPP_POINT_TO_POINT_CLUSTERID_DHT11:
    454              
    455              /***********温度打印***************/
    456              /*HalUARTWrite(0,"Temp is:",8);        //提示接收到数据
    457              HalUARTWrite(0,&pkt->cmd.Data[0],2); //温度
    458              HalUARTWrite(0,"\n",1);              // 回车换行*/
    459              
    460              /***************湿度打印****************/
    461              /*HalUARTWrite(0,"Humidity is:",12);    //提示接收到数据
    462              HalUARTWrite(0,&pkt->cmd.Data[2],2);  //湿度
    463              HalUARTWrite(0,"\n",1);              // 回车换行*/
    464              
    465              osal_memcpy(&rftx,pkt->cmd.Data,sizeof(rftx));
   \                     ??SampleApp_MessageMSGCB_2:
   \   00002B                ; Setup parameters for call to function osal_memcpy
   \   00002B   12....       LCALL   ?Subroutine2 & 0xFFFF
   \                     ??CrossCallReturnLabel_0:
   \   00002E   F5..         MOV     ?V0 + 0,A
   \   000030   A3           INC     DPTR
   \   000031   E0           MOVX    A,@DPTR
   \   000032   F5..         MOV     ?V0 + 1,A
   \   000034   75..00       MOV     ?V0 + 2,#0x0
   \   000037   78..         MOV     R0,#?V0 + 0
   \   000039   12....       LCALL   ?PUSH_XSTACK_I_THREE
   \   00003C   7C14         MOV     R4,#0x14
   \   00003E   7D00         MOV     R5,#0x0
   \   000040   7403         MOV     A,#0x3
   \   000042   12....       LCALL   ?XSTACK_DISP0_8
   \   000045   AA82         MOV     R2,DPL
   \   000047   AB83         MOV     R3,DPH
   \   000049   12....       LCALL   ??osal_memcpy?relay
   \   00004C   7403         MOV     A,#0x3
   \   00004E   12....       LCALL   ?DEALLOC_XSTACK8
    466              HalUARTWrite(0,rftx.databuf,sizeof(rftx));
   \   000051                ; Setup parameters for call to function HalUARTWrite
   \   000051   7C14         MOV     R4,#0x14
   \   000053   7D00         MOV     R5,#0x0
   \   000055   85..82       MOV     DPL,?XSP + 0
   \   000058   85..83       MOV     DPH,?XSP + 1
   \   00005B   AA82         MOV     R2,DPL
   \   00005D   AB83         MOV     R3,DPH
   \   00005F   7900         MOV     R1,#0x0
   \   000061   12....       LCALL   ??HalUARTWrite?relay
    467              //HalUARTWrite(0,"\n",1);
    468              
    469              break;
   \   000064   8033         SJMP    ??SampleApp_MessageMSGCB_0
    470              
    471            case SAMPLEAPP_POINT_TO_POINT_CLUSTERID_LIGHT:
    472              
    473              /*if(pkt->cmd.Data[0])
    474                HalUARTWrite(0,"no light\n",9);   //没光线
    475              else 
    476                HalUARTWrite(0,"got light\n",10); //有光线*/
    477              osal_memcpy(&rftx,pkt->cmd.Data,sizeof(rftx));
    478              HalUARTWrite(0,rftx.databuf,sizeof(rftx));
    479              //HalUARTWrite(0,"\n",1);
    480              
    481              break;
    482              
    483            case SAMPLEAPP_FLASH_CLUSTERID:
    484              
    485              flashTime = BUILD_UINT16(pkt->cmd.Data[1], pkt->cmd.Data[2] );
    486              HalLedBlink( HAL_LED_4, 4, 50, (flashTime / 4) );
   \                     ??SampleApp_MessageMSGCB_1:
   \   000066   12....       LCALL   ?Subroutine2 & 0xFFFF
   \                     ??CrossCallReturnLabel_1:
   \   000069   F8           MOV     R0,A
   \   00006A   A3           INC     DPTR
   \   00006B   E0           MOVX    A,@DPTR
   \   00006C   F9           MOV     R1,A
   \   00006D                ; Setup parameters for call to function HalLedBlink
   \   00006D   8882         MOV     DPL,R0
   \   00006F   8983         MOV     DPH,R1
   \   000071   A3           INC     DPTR
   \   000072   E0           MOVX    A,@DPTR
   \   000073   FA           MOV     R2,A
   \   000074   8882         MOV     DPL,R0
   \   000076   8983         MOV     DPH,R1
   \   000078   A3           INC     DPTR
   \   000079   A3           INC     DPTR
   \   00007A   E0           MOVX    A,@DPTR
   \   00007B   F9           MOV     R1,A
   \   00007C   EA           MOV     A,R2
   \   00007D   2400         ADD     A,#0x0
   \   00007F   F5..         MOV     ?V0 + 0,A
   \   000081   E4           CLR     A
   \   000082   39           ADDC    A,R1
   \   000083   F5..         MOV     ?V0 + 1,A
   \   000085   7402         MOV     A,#0x2
   \   000087   78..         MOV     R0,#?V0 + 0
   \   000089   12....       LCALL   ?US_SHR
   \   00008C   AC..         MOV     R4,?V0 + 0
   \   00008E   AD..         MOV     R5,?V0 + 1
   \   000090   7B32         MOV     R3,#0x32
   \   000092   7A04         MOV     R2,#0x4
   \   000094   7908         MOV     R1,#0x8
   \   000096   12....       LCALL   ??HalLedBlink?relay
    487              
    488              break;
    489            }
    490          }
   \                     ??SampleApp_MessageMSGCB_0:
   \   000099   7414         MOV     A,#0x14
   \   00009B   12....       LCALL   ?DEALLOC_XSTACK8
   \   00009E   02....       LJMP    ?Subroutine1 & 0xFFFF

   \                                 In  segment BANKED_CODE, align 1, keep-with-next
   \                     ?Subroutine2:
   \   000000   EA           MOV     A,R2
   \   000001   2422         ADD     A,#0x22
   \   000003   F582         MOV     DPL,A
   \   000005   EB           MOV     A,R3
   \   000006   3400         ADDC    A,#0x0
   \   000008   F583         MOV     DPH,A
   \   00000A   E0           MOVX    A,@DPTR
   \   00000B   22           RET
    491          
    492          /*********************************************************************
    493          * @fn      SampleApp_SendPeriodicMessage
    494          *
    495          * @brief   Send the periodic message.
    496          *
    497          * @param   none
    498          *
    499          * @return  none
    500          */

   \                                 In  segment BANKED_CODE, align 1, keep-with-next
   \                     ?Subroutine0:
   \   000000   12....       LCALL   ?DEALLOC_XSTACK8
   \   000003                REQUIRE ??Subroutine3_0
   \   000003                ; // Fall through to label ??Subroutine3_0

   \                                 In  segment BANKED_CODE, align 1, keep-with-next
    501          void SampleApp_SendPeriodicMessage( void )
   \                     SampleApp_SendPeriodicMessage:
    502          {
   \   000000   74F6         MOV     A,#-0xa
   \   000002   12....       LCALL   ?BANKED_ENTER_XDATA
   \   000005                ; Saved register size: 10
   \   000005                ; Auto size: 10
   \   000005   74F6         MOV     A,#-0xa
   \   000007   12....       LCALL   ?ALLOC_XSTACK8
    503            uint8 data[10]={'0','1','2','3','4','5','6','7','8','9'};//自定义数据
   \   00000A   85..82       MOV     DPL,?XSP + 0
   \   00000D   85..83       MOV     DPH,?XSP + 1
   \   000010   AC82         MOV     R4,DPL
   \   000012   AD83         MOV     R5,DPH
   \   000014   7583..       MOV     DPH,#(`?<Constant {48, 49, 50, 51, 52, 53, 54, 55, 56` >> 8) & 0xff
   \   000017   7582..       MOV     DPL,#`?<Constant {48, 49, 50, 51, 52, 53, 54, 55, 56` & 0xff
   \   00001A   740A         MOV     A,#0xa
   \   00001C   12....       LCALL   ?MOVE_LONG8_XDATA_XDATA
    504            if ( AF_DataRequest( &SampleApp_Periodic_DstAddr, &SampleApp_epDesc,
    505                                SAMPLEAPP_PERIODIC_CLUSTERID,
    506                                10,//字节数
    507                                data,//指针头
    508                                &SampleApp_TransID,
    509                                AF_DISCV_ROUTE,
    510                                AF_DEFAULT_RADIUS ) == afStatus_SUCCESS )
   \   00001F                ; Setup parameters for call to function AF_DataRequest
   \   00001F   75..1E       MOV     ?V0 + 0,#0x1e
   \   000022   78..         MOV     R0,#?V0 + 0
   \   000024   12....       LCALL   ?PUSH_XSTACK_I_ONE
   \   000027   75....       MOV     ?V0 + 0,#SampleApp_TransID & 0xff
   \   00002A   75....       MOV     ?V0 + 1,#(SampleApp_TransID >> 8) & 0xff
   \   00002D   78..         MOV     R0,#?V0 + 0
   \   00002F   12....       LCALL   ?PUSH_XSTACK_I_TWO
   \   000032   7403         MOV     A,#0x3
   \   000034   12....       LCALL   ?XSTACK_DISP0_8
   \   000037   8582..       MOV     ?V0 + 0,DPL
   \   00003A   8583..       MOV     ?V0 + 1,DPH
   \   00003D   78..         MOV     R0,#?V0 + 0
   \   00003F   12....       LCALL   ?PUSH_XSTACK_I_TWO
   \   000042   75..0A       MOV     ?V0 + 0,#0xa
   \   000045   75..00       MOV     ?V0 + 1,#0x0
   \   000048   78..         MOV     R0,#?V0 + 0
   \   00004A   12....       LCALL   ?PUSH_XSTACK_I_TWO
   \   00004D   75..01       MOV     ?V0 + 0,#0x1
   \   000050   78..         MOV     R0,#?V0 + 0
   \   000052   12....       LCALL   ?PUSH_XSTACK_I_TWO
   \   000055   7920         MOV     R1,#0x20
   \   000057   7C..         MOV     R4,#SampleApp_epDesc & 0xff
   \   000059   7D..         MOV     R5,#(SampleApp_epDesc >> 8) & 0xff
   \   00005B   7A..         MOV     R2,#SampleApp_Periodic_DstAddr & 0xff
   \   00005D   7B..         MOV     R3,#(SampleApp_Periodic_DstAddr >> 8) & 0xff
   \   00005F   12....       LCALL   ??AF_DataRequest?relay
   \   000062   7409         MOV     A,#0x9
   \   000064   12....       LCALL   ?DEALLOC_XSTACK8
    511            {
    512            }
    513            else
    514            {
    515              // Error occurred in request to send.
    516            }
    517          }
   \   000067   740A         MOV     A,#0xa
   \   000069   02....       LJMP    ?Subroutine0 & 0xFFFF
    518          
    519          /*********************************************************************
    520          * @fn      SampleApp_SendFlashMessage
    521          *
    522          * @brief   Send the flash message to group 1.
    523          *
    524          * @param   flashTime - in milliseconds
    525          *
    526          * @return  none
    527          */

   \                                 In  segment BANKED_CODE, align 1, keep-with-next
    528          void SampleApp_SendFlashMessage( uint16 flashTime )
   \                     SampleApp_SendFlashMessage:
    529          {
   \   000000   74F6         MOV     A,#-0xa
   \   000002   12....       LCALL   ?BANKED_ENTER_XDATA
   \   000005                ; Saved register size: 10
   \   000005                ; Auto size: 3
   \   000005   74FD         MOV     A,#-0x3
   \   000007   12....       LCALL   ?ALLOC_XSTACK8
    530            uint8 buffer[3];
    531            buffer[0] = (uint8)(SampleAppFlashCounter++);
   \   00000A   90....       MOV     DPTR,#SampleAppFlashCounter
   \   00000D   E0           MOVX    A,@DPTR
   \   00000E   85..82       MOV     DPL,?XSP + 0
   \   000011   85..83       MOV     DPH,?XSP + 1
   \   000014   F0           MOVX    @DPTR,A
   \   000015   90....       MOV     DPTR,#SampleAppFlashCounter
   \   000018   E0           MOVX    A,@DPTR
   \   000019   04           INC     A
   \   00001A   F0           MOVX    @DPTR,A
    532            buffer[1] = LO_UINT16( flashTime );
   \   00001B   7401         MOV     A,#0x1
   \   00001D   12....       LCALL   ?XSTACK_DISP0_8
   \   000020   EA           MOV     A,R2
   \   000021   F0           MOVX    @DPTR,A
    533            buffer[2] = HI_UINT16( flashTime );
   \   000022   7402         MOV     A,#0x2
   \   000024   12....       LCALL   ?XSTACK_DISP0_8
   \   000027   EB           MOV     A,R3
   \   000028   F0           MOVX    @DPTR,A
    534            
    535            if ( AF_DataRequest( &SampleApp_Flash_DstAddr, &SampleApp_epDesc,
    536                                SAMPLEAPP_FLASH_CLUSTERID,
    537                                3,
    538                                buffer,
    539                                &SampleApp_TransID,
    540                                AF_DISCV_ROUTE,
    541                                AF_DEFAULT_RADIUS ) == afStatus_SUCCESS )
   \   000029                ; Setup parameters for call to function AF_DataRequest
   \   000029   75..1E       MOV     ?V0 + 0,#0x1e
   \   00002C   78..         MOV     R0,#?V0 + 0
   \   00002E   12....       LCALL   ?PUSH_XSTACK_I_ONE
   \   000031   75....       MOV     ?V0 + 0,#SampleApp_TransID & 0xff
   \   000034   75....       MOV     ?V0 + 1,#(SampleApp_TransID >> 8) & 0xff
   \   000037   78..         MOV     R0,#?V0 + 0
   \   000039   12....       LCALL   ?PUSH_XSTACK_I_TWO
   \   00003C   7403         MOV     A,#0x3
   \   00003E   12....       LCALL   ?XSTACK_DISP0_8
   \   000041   8582..       MOV     ?V0 + 0,DPL
   \   000044   8583..       MOV     ?V0 + 1,DPH
   \   000047   78..         MOV     R0,#?V0 + 0
   \   000049   12....       LCALL   ?PUSH_XSTACK_I_TWO
   \   00004C   75..03       MOV     ?V0 + 0,#0x3
   \   00004F   75..00       MOV     ?V0 + 1,#0x0
   \   000052   78..         MOV     R0,#?V0 + 0
   \   000054   12....       LCALL   ?PUSH_XSTACK_I_TWO
   \   000057   75..02       MOV     ?V0 + 0,#0x2
   \   00005A   78..         MOV     R0,#?V0 + 0
   \   00005C   12....       LCALL   ?PUSH_XSTACK_I_TWO
   \   00005F   7920         MOV     R1,#0x20
   \   000061   7C..         MOV     R4,#SampleApp_epDesc & 0xff
   \   000063   7D..         MOV     R5,#(SampleApp_epDesc >> 8) & 0xff
   \   000065   7A..         MOV     R2,#SampleApp_Flash_DstAddr & 0xff
   \   000067   7B..         MOV     R3,#(SampleApp_Flash_DstAddr >> 8) & 0xff
   \   000069   12....       LCALL   ??AF_DataRequest?relay
   \   00006C   7409         MOV     A,#0x9
   \   00006E   12....       LCALL   ?DEALLOC_XSTACK8
    542            {
    543            }
    544            else
    545            {
    546              // Error occurred in request to send.
    547            }
    548          }
   \   000071   7403         MOV     A,#0x3
   \   000073   02....       LJMP    ?Subroutine0 & 0xFFFF

   \                                 In  segment BANK_RELAYS, align 1
   \                     ??To_string?relay:
   \   000000   12....       LCALL   ?BDISPATCH
   \   000003   ......       DC24    To_string

   \                                 In  segment BANK_RELAYS, align 1
   \                     ??SampleApp_Init?relay:
   \   000000   12....       LCALL   ?BDISPATCH
   \   000003   ......       DC24    SampleApp_Init

   \                                 In  segment BANK_RELAYS, align 1
   \                     ??SampleApp_ProcessEvent?relay:
   \   000000   12....       LCALL   ?BDISPATCH
   \   000003   ......       DC24    SampleApp_ProcessEvent

   \                                 In  segment BANK_RELAYS, align 1
   \                     ??SampleApp_HandleKeys?relay:
   \   000000   12....       LCALL   ?BDISPATCH
   \   000003   ......       DC24    SampleApp_HandleKeys

   \                                 In  segment BANK_RELAYS, align 1
   \                     ??SampleApp_MessageMSGCB?relay:
   \   000000   12....       LCALL   ?BDISPATCH
   \   000003   ......       DC24    SampleApp_MessageMSGCB

   \                                 In  segment BANK_RELAYS, align 1
   \                     ??SampleApp_SendPeriodicMessage?relay:
   \   000000   12....       LCALL   ?BDISPATCH
   \   000003   ......       DC24    SampleApp_SendPeriodicMessage

   \                                 In  segment BANK_RELAYS, align 1
   \                     ??SampleApp_SendFlashMessage?relay:
   \   000000   12....       LCALL   ?BDISPATCH
   \   000003   ......       DC24    SampleApp_SendFlashMessage

   \                                 In  segment XDATA_ROM_C, align 1
   \                     `?<Constant "Hello World\\n">`:
   \   000000   48656C6C     DB "Hello World\012"
   \            6F20576F
   \            726C640A
   \            00      

   \                                 In  segment XDATA_ROM_C, align 1
   \                     `?<Constant "Group 1">`:
   \   000000   47726F75     DB "Group 1"
   \            70203100

   \                                 In  segment XDATA_ROM_C, align 1
   \                     `?<Constant "SampleApp">`:
   \   000000   53616D70     DB "SampleApp"
   \            6C654170
   \            7000    

   \                                 In  segment XDATA_ROM_C, align 1
   \                     `?<Constant {48, 49, 50, 51, 52, 53, 54, 55, 56`:
   \   000000   30           DB 48
   \   000001   31           DB 49
   \   000002   32           DB 50
   \   000003   33           DB 51
   \   000004   34           DB 52
   \   000005   35           DB 53
   \   000006   36           DB 54
   \   000007   37           DB 55
   \   000008   38           DB 56
   \   000009   39           DB 57
    549          
    550          /*********************************************************************
    551          *********************************************************************/
    552          /*void SampleApp_SendPointToPointMessage( void )
    553          {
    554            uint8 L;
    555            if(LIGHT==1)
    556            { 
    557              L=1;  //有光线
    558              HalUARTWrite(0,"no light\n",9);     //串口
    559              HalLcdWriteString( "No Light", HAL_LCD_LINE_3 ); //LCD
    560            }  
    561            else 
    562            {
    563              L=0;  //没有光线
    564              HalUARTWrite(0,"got Light\n",10);       //串口
    565              HalLcdWriteString( "Got Light", HAL_LCD_LINE_3 );//LCD
    566            }
    567            
    568            if ( AF_DataRequest( &Point_To_Point_DstAddr,
    569                                &SampleApp_epDesc,
    570                                SAMPLEAPP_POINT_TO_POINT_CLUSTERID,
    571                                1,
    572                                &L,
    573                                &SampleApp_TransID,
    574                                AF_DISCV_ROUTE,
    575                                AF_DEFAULT_RADIUS ) == afStatus_SUCCESS )
    576            {
    577            }
    578            else
    579            {
    580              // Error occurred in request to send.
    581            }
    582          }*/

   Maximum stack usage in bytes:

     Function                       ISTACK PSTACK XSTACK
     --------                       ------ ------ ------
     SampleApp_HandleKeys               0      0     22
       -> SampleApp_SendFlashMessage
                                        0      0     20
       -> aps_FindGroup                 0      0     20
       -> aps_RemoveGroup               0      0     20
       -> aps_AddGroup                  0      0     20
     SampleApp_Init                     0      0     14
       -> MT_UartInit                   0      0     22
       -> MT_UartRegisterTaskID         0      0     22
       -> HalUARTWrite                  0      0     22
       -> afRegister                    0      0     22
       -> RegisterForKeys               0      0     22
       -> osal_memcpy                   0      0     28
       -> aps_AddGroup                  0      0     22
       -> HalLcdWriteString             0      0     22
     SampleApp_MessageMSGCB             0      0     46
       -> osal_memcpy                   0      0     68
       -> HalUARTWrite                  0      0     62
       -> HalLedBlink                   0      0     62
     SampleApp_ProcessEvent             0      0     12
       -> osal_msg_receive              0      0     24
       -> osal_start_timerEx            0      0     24
       -> osal_msg_deallocate           0      0     24
       -> osal_msg_receive              0      0     24
       -> SampleApp_HandleKeys          0      0     24
       -> SampleApp_MessageMSGCB        0      0     24
     SampleApp_SendFlashMessage         1      0     32
       -> AF_DataRequest                0      0     44
     SampleApp_SendPeriodicMessage      2      0     29
       -> AF_DataRequest                0      0     58
     To_string                          1      0     10


   Segment part sizes:

     Function/Label                                 Bytes
     --------------                                 -----
     P2SEL                                             1
     P2INP                                             1
     P2DIR                                             1
     SampleApp_ClusterList                            10
     SampleApp_SimpleDesc                             12
     SampleApp_epDesc                                  6
     SampleApp_TaskID                                  1
     SampleApp_NwkState                                1
     SampleApp_TransID                                 1
     SampleApp_Periodic_DstAddr                       12
     SampleApp_Flash_DstAddr                          12
     Point_To_Point_DstAddr                           12
     SampleApp_Group                                  18
     SampleAppPeriodicCounter                          1
     SampleAppFlashCounter                             1
     To_string                                       130
     ??Subroutine3_0                                   5
     SampleApp_Init                                  185
     ?Subroutine1                                      5
     SampleApp_ProcessEvent                          138
     SampleApp_HandleKeys                             62
     SampleApp_MessageMSGCB                          161
     ?Subroutine2                                     12
     ?Subroutine0                                      3
     SampleApp_SendPeriodicMessage                   108
     SampleApp_SendFlashMessage                      118
     ??To_string?relay                                 6
     ??SampleApp_Init?relay                            6
     ??SampleApp_ProcessEvent?relay                    6
     ??SampleApp_HandleKeys?relay                      6
     ??SampleApp_MessageMSGCB?relay                    6
     ??SampleApp_SendPeriodicMessage?relay             6
     ??SampleApp_SendFlashMessage?relay                6
     ?<Constant "Hello World\n">                      13
     ?<Constant "Group 1">                             8
     ?<Constant "SampleApp">                          10
     ?<Constant {48, 49, 50, 51, 52, 53, 54, 55, 56   10

 
 927 bytes in segment BANKED_CODE
  42 bytes in segment BANK_RELAYS
   3 bytes in segment SFR_AN
  63 bytes in segment XDATA_ROM_C
  65 bytes in segment XDATA_Z
 
 969 bytes of CODE  memory
  63 bytes of CONST memory
   0 bytes of DATA  memory (+ 3 bytes shared)
  65 bytes of XDATA memory

Errors: none
Warnings: 1
